
ibex_rand_instr_test_0.o:     file format elf32-littleriscv


Disassembly of section .text:

80000000 <$xrv32i2p1_m2p0_zicsr2p0_zifencei2p0_zmmul1p0>:
80000000:	7800106f          	j	80001780 <mmode_exception_handler>
80000004:	3b40006f          	j	800003b8 <mmode_intr_vector_1>
80000008:	4540006f          	j	8000045c <mmode_intr_vector_2>
8000000c:	4f40006f          	j	80000500 <mmode_intr_vector_3>
80000010:	5940006f          	j	800005a4 <mmode_intr_vector_4>
80000014:	6340006f          	j	80000648 <mmode_intr_vector_5>
80000018:	6d40006f          	j	800006ec <mmode_intr_vector_6>
8000001c:	7740006f          	j	80000790 <mmode_intr_vector_7>
80000020:	0150006f          	j	80000834 <mmode_intr_vector_8>
80000024:	0b50006f          	j	800008d8 <mmode_intr_vector_9>
80000028:	1550006f          	j	8000097c <mmode_intr_vector_10>
8000002c:	1f50006f          	j	80000a20 <mmode_intr_vector_11>
80000030:	2950006f          	j	80000ac4 <mmode_intr_vector_12>
80000034:	3350006f          	j	80000b68 <mmode_intr_vector_13>
80000038:	3d50006f          	j	80000c0c <mmode_intr_vector_14>
8000003c:	4750006f          	j	80000cb0 <mmode_intr_vector_15>
80000040:	5150006f          	j	80000d54 <mmode_intr_vector_16>
80000044:	5b50006f          	j	80000df8 <mmode_intr_vector_17>
80000048:	6550006f          	j	80000e9c <mmode_intr_vector_18>
8000004c:	6f50006f          	j	80000f40 <mmode_intr_vector_19>
80000050:	7950006f          	j	80000fe4 <mmode_intr_vector_20>
80000054:	0340106f          	j	80001088 <mmode_intr_vector_21>
80000058:	0d40106f          	j	8000112c <mmode_intr_vector_22>
8000005c:	1720106f          	j	800011ce <mmode_intr_vector_23>
80000060:	2100106f          	j	80001270 <mmode_intr_vector_24>
80000064:	2ae0106f          	j	80001312 <mmode_intr_vector_25>
80000068:	34c0106f          	j	800013b4 <mmode_intr_vector_26>
8000006c:	3ea0106f          	j	80001456 <mmode_intr_vector_27>
80000070:	4880106f          	j	800014f8 <mmode_intr_vector_28>
80000074:	5260106f          	j	8000159a <mmode_intr_vector_29>
80000078:	5c40106f          	j	8000163c <mmode_intr_vector_30>
8000007c:	6620106f          	j	800016de <mmode_intr_vector_31>

80000080 <_start>:
80000080:	40001d37          	lui	s10,0x40001
80000084:	104d0d13          	addi	s10,s10,260 # 40001104 <$xrv32i2p1_m2p0_zicsr2p0_zifencei2p0_zmmul1p0-0x3fffeefc>
80000088:	301d1073          	csrw	misa,s10

8000008c <kernel_sp>:
8000008c:	00010a97          	auipc	s5,0x10
80000090:	bf8a8a93          	addi	s5,s5,-1032 # 8000fc84 <kernel_stack_end>

80000094 <trap_vec_init>:
80000094:	00000d17          	auipc	s10,0x0
80000098:	f6cd0d13          	addi	s10,s10,-148 # 80000000 <$xrv32i2p1_m2p0_zicsr2p0_zifencei2p0_zmmul1p0>
8000009c:	001d6d13          	ori	s10,s10,1
800000a0:	305d1073          	csrw	mtvec,s10

800000a4 <mepc_setup>:
800000a4:	00000d17          	auipc	s10,0x0
800000a8:	00cd0d13          	addi	s10,s10,12 # 800000b0 <init>
800000ac:	341d1073          	csrw	mepc,s10

800000b0 <init>:
800000b0:	00700013          	li	zero,7
800000b4:	1cfe40b7          	lui	ra,0x1cfe4
800000b8:	65608093          	addi	ra,ra,1622 # 1cfe4656 <$xrv32i2p1_m2p0_zicsr2p0_zifencei2p0_zmmul1p0-0x6301b9aa>
800000bc:	4115                	li	sp,5
800000be:	c32921b7          	lui	gp,0xc3292
800000c2:	dec18193          	addi	gp,gp,-532 # c3291dec <_end+0x43282164>
800000c6:	4201                	li	tp,0
800000c8:	4281                	li	t0,0
800000ca:	80000337          	lui	t1,0x80000
800000ce:	4381                	li	t2,0
800000d0:	f8c23437          	lui	s0,0xf8c23
800000d4:	b2040413          	addi	s0,s0,-1248 # f8c22b20 <_end+0x78c12e98>
800000d8:	44b5                	li	s1,13
800000da:	f8368537          	lui	a0,0xf8368
800000de:	9e550513          	addi	a0,a0,-1563 # f83679e5 <_end+0x78357d5d>
800000e2:	4581                	li	a1,0
800000e4:	6d149637          	lui	a2,0x6d149
800000e8:	18960613          	addi	a2,a2,393 # 6d149189 <$xrv32i2p1_m2p0_zicsr2p0_zifencei2p0_zmmul1p0-0x12eb6e77>
800000ec:	f75f76b7          	lui	a3,0xf75f7
800000f0:	82e68693          	addi	a3,a3,-2002 # f75f682e <_end+0x775e6ba6>
800000f4:	e34e0737          	lui	a4,0xe34e0
800000f8:	a3670713          	addi	a4,a4,-1482 # e34dfa36 <_end+0x634cfdae>
800000fc:	4781                	li	a5,0
800000fe:	4801                	li	a6,0
80000100:	f1c4f8b7          	lui	a7,0xf1c4f
80000104:	ee388893          	addi	a7,a7,-285 # f1c4eee3 <_end+0x71c3f25b>
80000108:	4901                	li	s2,0
8000010a:	4981                	li	s3,0
8000010c:	4a01                	li	s4,0
8000010e:	80000b37          	lui	s6,0x80000
80000112:	fec9bbb7          	lui	s7,0xfec9b
80000116:	07cb8b93          	addi	s7,s7,124 # fec9b07c <_end+0x7ec8b3f4>
8000011a:	80000c37          	lui	s8,0x80000
8000011e:	7712bcb7          	lui	s9,0x7712b
80000122:	d27c8c93          	addi	s9,s9,-729 # 7712ad27 <$xrv32i2p1_m2p0_zicsr2p0_zifencei2p0_zmmul1p0-0x8ed52d9>
80000126:	4d01                	li	s10,0
80000128:	4d9d                	li	s11,7
8000012a:	4e31                	li	t3,12
8000012c:	bc14eeb7          	lui	t4,0xbc14e
80000130:	af0e8e93          	addi	t4,t4,-1296 # bc14daf0 <_end+0x3c13de68>
80000134:	4f81                	li	t6,0
80000136:	0000bf17          	auipc	t5,0xb
8000013a:	d2ef0f13          	addi	t5,t5,-722 # 8000ae64 <user_stack_end>
8000013e:	a009                	j	80000140 <main>

80000140 <main>:
80000140:	00004e17          	auipc	t3,0x4
80000144:	de6e0e13          	addi	t3,t3,-538 # 80003f26 <region_1+0xede>
80000148:	001e0003          	lb	zero,1(t3)
8000014c:	0e3cf4b7          	lui	s1,0xe3cf
80000150:	001e2083          	lw	ra,1(t3)
80000154:	001e2083          	lw	ra,1(t3)
80000158:	008e10a3          	sh	s0,1(t3)
8000015c:	008e10a3          	sh	s0,1(t3)
80000160:	8cf5                	and	s1,s1,a3
80000162:	001e5003          	lhu	zero,1(t3)
80000166:	001e1583          	lh	a1,1(t3)
8000016a:	001e0003          	lb	zero,1(t3)
8000016e:	001e4683          	lbu	a3,1(t3)
80000172:	001e1583          	lh	a1,1(t3)
80000176:	310f6193          	ori	gp,t5,784
8000017a:	002e20a3          	sw	sp,1(t3)
8000017e:	00004e17          	auipc	t3,0x4
80000182:	b71e0e13          	addi	t3,t3,-1167 # 80003cef <region_1+0xca7>
80000186:	bede0623          	sb	a3,-1044(t3)
8000018a:	052e2083          	lw	ra,82(t3)
8000018e:	002a6333          	or	t1,s4,sp
80000192:	e8de0423          	sb	a3,-376(t3)
80000196:	82cd                	srli	a3,a3,0x13
80000198:	bf3e4683          	lbu	a3,-1037(t3)
8000019c:	968e1a23          	sh	s0,-1676(t3)
800001a0:	035d34b3          	mulhu	s1,s10,s5
800001a4:	80ee0003          	lb	zero,-2034(t3)
800001a8:	7e4e2083          	lw	ra,2020(t3)
800001ac:	a70e1583          	lh	a1,-1424(t3)
800001b0:	0466                	slli	s0,s0,0x19
800001b2:	4ece1583          	lh	a1,1260(t3)
800001b6:	0001                	nop
800001b8:	8355                	srli	a4,a4,0x15
800001ba:	c2de0223          	sb	a3,-988(t3)
800001be:	03f0b833          	mulhu	a6,ra,t6
800001c2:	0090feb3          	and	t4,ra,s1
800001c6:	59ae2083          	lw	ra,1434(t3)
800001ca:	fcde2083          	lw	ra,-51(t3)
800001ce:	8e95                	sub	a3,a3,a3
800001d0:	32de0fa3          	sb	a3,831(t3)
800001d4:	86bd                	srai	a3,a3,0xf
800001d6:	01cb1033          	sll	zero,s6,t3
800001da:	c22e2b23          	sw	sp,-970(t3)
800001de:	16fd                	addi	a3,a3,-1
800001e0:	fa0e5003          	lhu	zero,-96(t3)
800001e4:	a82e25a3          	sw	sp,-1397(t3)
800001e8:	86a5                	srai	a3,a3,0x9
800001ea:	f88e1123          	sh	s0,-126(t3)
800001ee:	e83d2037          	lui	zero,0xe83d2
800001f2:	1c2e2423          	sw	sp,456(t3)
800001f6:	128e1d23          	sh	s0,314(t3)
800001fa:	7491b013          	sltiu	zero,gp,1865
800001fe:	0001                	nop
80000200:	d2de0b23          	sb	a3,-714(t3)
80000204:	0235c033          	div	zero,a1,gp
80000208:	e62e2923          	sw	sp,-398(t3)
8000020c:	348e13a3          	sh	s0,839(t3)
80000210:	014c6233          	or	tp,s8,s4
80000214:	006a1d13          	slli	s10,s4,0x6
80000218:	0001                	nop
8000021a:	1c9e4683          	lbu	a3,457(t3)
8000021e:	33ee1583          	lh	a1,830(t3)
80000222:	269e2083          	lw	ra,617(t3)
80000226:	382e21a3          	sw	sp,899(t3)
8000022a:	4e81                	li	t4,0
8000022c:	0d3c3e37          	lui	t3,0xd3c3
80000230:	347e0e13          	addi	t3,t3,839 # d3c3347 <$xrv32i2p1_m2p0_zicsr2p0_zifencei2p0_zmmul1p0-0x72c3ccb9>
80000234:	4d81                	li	s11,0
80000236:	4d01                	li	s10,0
80000238:	4781                	li	a5,0
8000023a:	4801                	li	a6,0
8000023c:	4c01                	li	s8,0
8000023e:	4105                	li	sp,1
80000240:	4501                	li	a0,0
80000242:	4601                	li	a2,0
80000244:	0294                	addi	a3,sp,320
80000246:	8e95                	sub	a3,a3,a3
80000248:	55fd                	li	a1,-1
8000024a:	8796                	mv	a5,t0
8000024c:	6261                	lui	tp,0x18
8000024e:	10fd                	addi	ra,ra,-1
80000250:	03f76b33          	rem	s6,a4,t6
80000254:	0001                	nop
80000256:	0310                	addi	a2,sp,384
80000258:	12970013          	addi	zero,a4,297
8000025c:	0419                	addi	s0,s0,6
8000025e:	0001                	nop
80000260:	0308b6b3          	mulhu	a3,a7,a6
80000264:	0001                	nop
80000266:	7dd1a2b7          	lui	t0,0x7dd1a
8000026a:	03b1aa33          	mulhsu	s4,gp,s11
8000026e:	0371e6b3          	rem	a3,gp,s7
80000272:	8f19                	sub	a4,a4,a4
80000274:	52fd                	li	t0,-1
80000276:	0001                	nop
80000278:	60d1                	lui	ra,0x14
8000027a:	0001                	nop
8000027c:	03b783b3          	mul	t2,a5,s11
80000280:	03ba4433          	div	s0,s4,s11
80000284:	0001                	nop
80000286:	0001                	nop
80000288:	8de5                	and	a1,a1,s1
8000028a:	00aafa63          	bgeu	s5,a0,8000029e <main+0x15e>
8000028e:	00146cb3          	or	s9,s0,ra
80000292:	03f36733          	rem	a4,t1,t6
80000296:	e4cc8893          	addi	a7,s9,-436
8000029a:	e291                	bnez	a3,8000029e <main+0x15e>
8000029c:	0001                	nop
8000029e:	02270b63          	beq	a4,sp,800002d4 <main+0x194>
800002a2:	0de42693          	slti	a3,s0,222
800002a6:	bb464113          	xori	sp,a2,-1100
800002aa:	02428963          	beq	t0,tp,800002dc <main+0x19c>
800002ae:	01bc0263          	beq	s8,s11,800002b2 <main+0x172>
800002b2:	01a4a033          	slt	zero,s1,s10
800002b6:	82d5                	srli	a3,a3,0x15
800002b8:	f3cac113          	xori	sp,s5,-196
800002bc:	6c0d                	lui	s8,0x3
800002be:	b05b8993          	addi	s3,s7,-1275
800002c2:	d1752217          	auipc	tp,0xd1752
800002c6:	013c1b33          	sll	s6,s8,s3
800002ca:	0183de33          	srl	t3,t2,s8
800002ce:	8eb1                	xor	a3,a3,a2
800002d0:	013ed463          	bge	t4,s3,800002d8 <main+0x198>
800002d4:	098ba893          	slti	a7,s7,152
800002d8:	0001                	nop
800002da:	90ce                	add	ra,ra,s3
800002dc:	04facf63          	blt	s5,a5,8000033a <main_2+0x42>
800002e0:	9b14bd93          	sltiu	s11,s1,-1615
800002e4:	0ccd                	addi	s9,s9,19
800002e6:	00adf733          	and	a4,s11,a0
800002ea:	41be8033          	sub	zero,t4,s11
800002ee:	0001                	nop
800002f0:	000bd2b3          	srl	t0,s7,zero
800002f4:	0714                	addi	a3,sp,896
800002f6:	9d3e                	add	s10,s10,a5

800002f8 <main_2>:
800002f8:	034008ef          	jal	a7,8000032c <main_2+0x34>
800002fc:	00c000ef          	jal	ra,80000308 <main_2+0x10>
80000300:	024000ef          	jal	ra,80000324 <main_2+0x2c>
80000304:	ff9ff2ef          	jal	t0,800002fc <main_2+0x4>
80000308:	008000ef          	jal	ra,80000310 <main_2+0x18>
8000030c:	ff5ff0ef          	jal	ra,80000300 <main_2+0x8>
80000310:	00800bef          	jal	s7,80000318 <main_2+0x20>
80000314:	020002ef          	jal	t0,80000334 <main_2+0x3c>
80000318:	ff5ff0ef          	jal	ra,8000030c <main_2+0x14>
8000031c:	00c000ef          	jal	ra,80000328 <main_2+0x30>
80000320:	010000ef          	jal	ra,80000330 <main_2+0x38>
80000324:	ff9ff1ef          	jal	gp,8000031c <main_2+0x24>
80000328:	fedff0ef          	jal	ra,80000314 <main_2+0x1c>
8000032c:	ff5ff0ef          	jal	ra,80000320 <main_2+0x28>
80000330:	fd5ff0ef          	jal	ra,80000304 <main_2+0xc>
80000334:	0040046f          	jal	s0,80000338 <main_2+0x40>
80000338:	8699                	srai	a3,a3,0x6
8000033a:	56fd                	li	a3,-1
8000033c:	00d60c33          	add	s8,a2,a3
80000340:	029a9763          	bne	s5,s1,8000036e <main_2+0x76>
80000344:	717d                	addi	sp,sp,-16
80000346:	8e91                	sub	a3,a3,a2
80000348:	ca85                	beqz	a3,80000378 <main_2+0x80>
8000034a:	02146033          	rem	zero,s0,ra
8000034e:	01b64013          	xori	zero,a2,27
80000352:	00b99b33          	sll	s6,s3,a1
80000356:	012ed663          	bge	t4,s2,80000362 <main_2+0x6a>
8000035a:	40a90533          	sub	a0,s2,a0
8000035e:	69943813          	sltiu	a6,s0,1689
80000362:	01659033          	sll	zero,a1,s6
80000366:	0e9c                	addi	a5,sp,848
80000368:	8115                	srli	a0,a0,0x5
8000036a:	001a2533          	slt	a0,s4,ra
8000036e:	01879a33          	sll	s4,a5,s8
80000372:	00cd                	addi	ra,ra,19
80000374:	0066d613          	srli	a2,a3,0x6
80000378:	019bd513          	srli	a0,s7,0x19
8000037c:	017a5363          	bge	s4,s7,80000382 <main_2+0x8a>
80000380:	8ef5                	and	a3,a3,a3
80000382:	1b7d                	addi	s6,s6,-1
80000384:	6161                	addi	sp,sp,80
80000386:	75a6fe93          	andi	t4,a3,1882
8000038a:	0086                	slli	ra,ra,0x1
8000038c:	c2967813          	andi	a6,a2,-983
80000390:	01137463          	bgeu	t1,a7,80000398 <main_2+0xa0>
80000394:	008c7bb3          	and	s7,s8,s0
80000398:	0001                	nop
8000039a:	00000f97          	auipc	t6,0x0
8000039e:	00cf8f93          	addi	t6,t6,12 # 800003a6 <test_done>
800003a2:	000f8067          	jr	t6

800003a6 <test_done>:
800003a6:	4185                	li	gp,1
800003a8:	00000073          	ecall

800003ac <write_tohost>:
800003ac:	00002f17          	auipc	t5,0x2
800003b0:	c43f2a23          	sw	gp,-940(t5) # 80002000 <tohost>

800003b4 <_exit>:
800003b4:	bfe5                	j	800003ac <write_tohost>

800003b6 <instr_end>:
800003b6:	0001                	nop

800003b8 <mmode_intr_vector_1>:
800003b8:	340f1f73          	csrrw	t5,mscratch,t5
800003bc:	000a8f33          	add	t5,s5,zero
800003c0:	f84f0f13          	addi	t5,t5,-124
800003c4:	001f2223          	sw	ra,4(t5)
800003c8:	002f2423          	sw	sp,8(t5)
800003cc:	003f2623          	sw	gp,12(t5)
800003d0:	004f2823          	sw	tp,16(t5)
800003d4:	005f2a23          	sw	t0,20(t5)
800003d8:	006f2c23          	sw	t1,24(t5)
800003dc:	007f2e23          	sw	t2,28(t5)
800003e0:	028f2023          	sw	s0,32(t5)
800003e4:	029f2223          	sw	s1,36(t5)
800003e8:	02af2423          	sw	a0,40(t5)
800003ec:	02bf2623          	sw	a1,44(t5)
800003f0:	02cf2823          	sw	a2,48(t5)
800003f4:	02df2a23          	sw	a3,52(t5)
800003f8:	02ef2c23          	sw	a4,56(t5)
800003fc:	02ff2e23          	sw	a5,60(t5)
80000400:	050f2023          	sw	a6,64(t5)
80000404:	051f2223          	sw	a7,68(t5)
80000408:	052f2423          	sw	s2,72(t5)
8000040c:	053f2623          	sw	s3,76(t5)
80000410:	054f2823          	sw	s4,80(t5)
80000414:	055f2a23          	sw	s5,84(t5)
80000418:	056f2c23          	sw	s6,88(t5)
8000041c:	057f2e23          	sw	s7,92(t5)
80000420:	078f2023          	sw	s8,96(t5)
80000424:	079f2223          	sw	s9,100(t5)
80000428:	07af2423          	sw	s10,104(t5)
8000042c:	07bf2623          	sw	s11,108(t5)
80000430:	07cf2823          	sw	t3,112(t5)
80000434:	07df2a23          	sw	t4,116(t5)
80000438:	07ef2c23          	sw	t5,120(t5)
8000043c:	07ff2e23          	sw	t6,124(t5)
80000440:	34202d73          	csrr	s10,mcause
80000444:	01fd5d13          	srli	s10,s10,0x1f
80000448:	000d0463          	beqz	s10,80000450 <mmode_intr_vector_1+0x98>
8000044c:	50c0106f          	j	80001958 <mmode_intr_handler>
80000450:	00000f97          	auipc	t6,0x0
80000454:	f56f8f93          	addi	t6,t6,-170 # 800003a6 <test_done>
80000458:	000f8067          	jr	t6

8000045c <mmode_intr_vector_2>:
8000045c:	340f1f73          	csrrw	t5,mscratch,t5
80000460:	000a8f33          	add	t5,s5,zero
80000464:	f84f0f13          	addi	t5,t5,-124
80000468:	001f2223          	sw	ra,4(t5)
8000046c:	002f2423          	sw	sp,8(t5)
80000470:	003f2623          	sw	gp,12(t5)
80000474:	004f2823          	sw	tp,16(t5)
80000478:	005f2a23          	sw	t0,20(t5)
8000047c:	006f2c23          	sw	t1,24(t5)
80000480:	007f2e23          	sw	t2,28(t5)
80000484:	028f2023          	sw	s0,32(t5)
80000488:	029f2223          	sw	s1,36(t5)
8000048c:	02af2423          	sw	a0,40(t5)
80000490:	02bf2623          	sw	a1,44(t5)
80000494:	02cf2823          	sw	a2,48(t5)
80000498:	02df2a23          	sw	a3,52(t5)
8000049c:	02ef2c23          	sw	a4,56(t5)
800004a0:	02ff2e23          	sw	a5,60(t5)
800004a4:	050f2023          	sw	a6,64(t5)
800004a8:	051f2223          	sw	a7,68(t5)
800004ac:	052f2423          	sw	s2,72(t5)
800004b0:	053f2623          	sw	s3,76(t5)
800004b4:	054f2823          	sw	s4,80(t5)
800004b8:	055f2a23          	sw	s5,84(t5)
800004bc:	056f2c23          	sw	s6,88(t5)
800004c0:	057f2e23          	sw	s7,92(t5)
800004c4:	078f2023          	sw	s8,96(t5)
800004c8:	079f2223          	sw	s9,100(t5)
800004cc:	07af2423          	sw	s10,104(t5)
800004d0:	07bf2623          	sw	s11,108(t5)
800004d4:	07cf2823          	sw	t3,112(t5)
800004d8:	07df2a23          	sw	t4,116(t5)
800004dc:	07ef2c23          	sw	t5,120(t5)
800004e0:	07ff2e23          	sw	t6,124(t5)
800004e4:	34202d73          	csrr	s10,mcause
800004e8:	01fd5d13          	srli	s10,s10,0x1f
800004ec:	000d0463          	beqz	s10,800004f4 <mmode_intr_vector_2+0x98>
800004f0:	4680106f          	j	80001958 <mmode_intr_handler>
800004f4:	00000f97          	auipc	t6,0x0
800004f8:	eb2f8f93          	addi	t6,t6,-334 # 800003a6 <test_done>
800004fc:	000f8067          	jr	t6

80000500 <mmode_intr_vector_3>:
80000500:	340f1f73          	csrrw	t5,mscratch,t5
80000504:	000a8f33          	add	t5,s5,zero
80000508:	f84f0f13          	addi	t5,t5,-124
8000050c:	001f2223          	sw	ra,4(t5)
80000510:	002f2423          	sw	sp,8(t5)
80000514:	003f2623          	sw	gp,12(t5)
80000518:	004f2823          	sw	tp,16(t5)
8000051c:	005f2a23          	sw	t0,20(t5)
80000520:	006f2c23          	sw	t1,24(t5)
80000524:	007f2e23          	sw	t2,28(t5)
80000528:	028f2023          	sw	s0,32(t5)
8000052c:	029f2223          	sw	s1,36(t5)
80000530:	02af2423          	sw	a0,40(t5)
80000534:	02bf2623          	sw	a1,44(t5)
80000538:	02cf2823          	sw	a2,48(t5)
8000053c:	02df2a23          	sw	a3,52(t5)
80000540:	02ef2c23          	sw	a4,56(t5)
80000544:	02ff2e23          	sw	a5,60(t5)
80000548:	050f2023          	sw	a6,64(t5)
8000054c:	051f2223          	sw	a7,68(t5)
80000550:	052f2423          	sw	s2,72(t5)
80000554:	053f2623          	sw	s3,76(t5)
80000558:	054f2823          	sw	s4,80(t5)
8000055c:	055f2a23          	sw	s5,84(t5)
80000560:	056f2c23          	sw	s6,88(t5)
80000564:	057f2e23          	sw	s7,92(t5)
80000568:	078f2023          	sw	s8,96(t5)
8000056c:	079f2223          	sw	s9,100(t5)
80000570:	07af2423          	sw	s10,104(t5)
80000574:	07bf2623          	sw	s11,108(t5)
80000578:	07cf2823          	sw	t3,112(t5)
8000057c:	07df2a23          	sw	t4,116(t5)
80000580:	07ef2c23          	sw	t5,120(t5)
80000584:	07ff2e23          	sw	t6,124(t5)
80000588:	34202d73          	csrr	s10,mcause
8000058c:	01fd5d13          	srli	s10,s10,0x1f
80000590:	000d0463          	beqz	s10,80000598 <mmode_intr_vector_3+0x98>
80000594:	3c40106f          	j	80001958 <mmode_intr_handler>
80000598:	00000f97          	auipc	t6,0x0
8000059c:	e0ef8f93          	addi	t6,t6,-498 # 800003a6 <test_done>
800005a0:	000f8067          	jr	t6

800005a4 <mmode_intr_vector_4>:
800005a4:	340f1f73          	csrrw	t5,mscratch,t5
800005a8:	000a8f33          	add	t5,s5,zero
800005ac:	f84f0f13          	addi	t5,t5,-124
800005b0:	001f2223          	sw	ra,4(t5)
800005b4:	002f2423          	sw	sp,8(t5)
800005b8:	003f2623          	sw	gp,12(t5)
800005bc:	004f2823          	sw	tp,16(t5)
800005c0:	005f2a23          	sw	t0,20(t5)
800005c4:	006f2c23          	sw	t1,24(t5)
800005c8:	007f2e23          	sw	t2,28(t5)
800005cc:	028f2023          	sw	s0,32(t5)
800005d0:	029f2223          	sw	s1,36(t5)
800005d4:	02af2423          	sw	a0,40(t5)
800005d8:	02bf2623          	sw	a1,44(t5)
800005dc:	02cf2823          	sw	a2,48(t5)
800005e0:	02df2a23          	sw	a3,52(t5)
800005e4:	02ef2c23          	sw	a4,56(t5)
800005e8:	02ff2e23          	sw	a5,60(t5)
800005ec:	050f2023          	sw	a6,64(t5)
800005f0:	051f2223          	sw	a7,68(t5)
800005f4:	052f2423          	sw	s2,72(t5)
800005f8:	053f2623          	sw	s3,76(t5)
800005fc:	054f2823          	sw	s4,80(t5)
80000600:	055f2a23          	sw	s5,84(t5)
80000604:	056f2c23          	sw	s6,88(t5)
80000608:	057f2e23          	sw	s7,92(t5)
8000060c:	078f2023          	sw	s8,96(t5)
80000610:	079f2223          	sw	s9,100(t5)
80000614:	07af2423          	sw	s10,104(t5)
80000618:	07bf2623          	sw	s11,108(t5)
8000061c:	07cf2823          	sw	t3,112(t5)
80000620:	07df2a23          	sw	t4,116(t5)
80000624:	07ef2c23          	sw	t5,120(t5)
80000628:	07ff2e23          	sw	t6,124(t5)
8000062c:	34202d73          	csrr	s10,mcause
80000630:	01fd5d13          	srli	s10,s10,0x1f
80000634:	000d0463          	beqz	s10,8000063c <mmode_intr_vector_4+0x98>
80000638:	3200106f          	j	80001958 <mmode_intr_handler>
8000063c:	00000f97          	auipc	t6,0x0
80000640:	d6af8f93          	addi	t6,t6,-662 # 800003a6 <test_done>
80000644:	000f8067          	jr	t6

80000648 <mmode_intr_vector_5>:
80000648:	340f1f73          	csrrw	t5,mscratch,t5
8000064c:	000a8f33          	add	t5,s5,zero
80000650:	f84f0f13          	addi	t5,t5,-124
80000654:	001f2223          	sw	ra,4(t5)
80000658:	002f2423          	sw	sp,8(t5)
8000065c:	003f2623          	sw	gp,12(t5)
80000660:	004f2823          	sw	tp,16(t5)
80000664:	005f2a23          	sw	t0,20(t5)
80000668:	006f2c23          	sw	t1,24(t5)
8000066c:	007f2e23          	sw	t2,28(t5)
80000670:	028f2023          	sw	s0,32(t5)
80000674:	029f2223          	sw	s1,36(t5)
80000678:	02af2423          	sw	a0,40(t5)
8000067c:	02bf2623          	sw	a1,44(t5)
80000680:	02cf2823          	sw	a2,48(t5)
80000684:	02df2a23          	sw	a3,52(t5)
80000688:	02ef2c23          	sw	a4,56(t5)
8000068c:	02ff2e23          	sw	a5,60(t5)
80000690:	050f2023          	sw	a6,64(t5)
80000694:	051f2223          	sw	a7,68(t5)
80000698:	052f2423          	sw	s2,72(t5)
8000069c:	053f2623          	sw	s3,76(t5)
800006a0:	054f2823          	sw	s4,80(t5)
800006a4:	055f2a23          	sw	s5,84(t5)
800006a8:	056f2c23          	sw	s6,88(t5)
800006ac:	057f2e23          	sw	s7,92(t5)
800006b0:	078f2023          	sw	s8,96(t5)
800006b4:	079f2223          	sw	s9,100(t5)
800006b8:	07af2423          	sw	s10,104(t5)
800006bc:	07bf2623          	sw	s11,108(t5)
800006c0:	07cf2823          	sw	t3,112(t5)
800006c4:	07df2a23          	sw	t4,116(t5)
800006c8:	07ef2c23          	sw	t5,120(t5)
800006cc:	07ff2e23          	sw	t6,124(t5)
800006d0:	34202d73          	csrr	s10,mcause
800006d4:	01fd5d13          	srli	s10,s10,0x1f
800006d8:	000d0463          	beqz	s10,800006e0 <mmode_intr_vector_5+0x98>
800006dc:	27c0106f          	j	80001958 <mmode_intr_handler>
800006e0:	00000f97          	auipc	t6,0x0
800006e4:	cc6f8f93          	addi	t6,t6,-826 # 800003a6 <test_done>
800006e8:	000f8067          	jr	t6

800006ec <mmode_intr_vector_6>:
800006ec:	340f1f73          	csrrw	t5,mscratch,t5
800006f0:	000a8f33          	add	t5,s5,zero
800006f4:	f84f0f13          	addi	t5,t5,-124
800006f8:	001f2223          	sw	ra,4(t5)
800006fc:	002f2423          	sw	sp,8(t5)
80000700:	003f2623          	sw	gp,12(t5)
80000704:	004f2823          	sw	tp,16(t5)
80000708:	005f2a23          	sw	t0,20(t5)
8000070c:	006f2c23          	sw	t1,24(t5)
80000710:	007f2e23          	sw	t2,28(t5)
80000714:	028f2023          	sw	s0,32(t5)
80000718:	029f2223          	sw	s1,36(t5)
8000071c:	02af2423          	sw	a0,40(t5)
80000720:	02bf2623          	sw	a1,44(t5)
80000724:	02cf2823          	sw	a2,48(t5)
80000728:	02df2a23          	sw	a3,52(t5)
8000072c:	02ef2c23          	sw	a4,56(t5)
80000730:	02ff2e23          	sw	a5,60(t5)
80000734:	050f2023          	sw	a6,64(t5)
80000738:	051f2223          	sw	a7,68(t5)
8000073c:	052f2423          	sw	s2,72(t5)
80000740:	053f2623          	sw	s3,76(t5)
80000744:	054f2823          	sw	s4,80(t5)
80000748:	055f2a23          	sw	s5,84(t5)
8000074c:	056f2c23          	sw	s6,88(t5)
80000750:	057f2e23          	sw	s7,92(t5)
80000754:	078f2023          	sw	s8,96(t5)
80000758:	079f2223          	sw	s9,100(t5)
8000075c:	07af2423          	sw	s10,104(t5)
80000760:	07bf2623          	sw	s11,108(t5)
80000764:	07cf2823          	sw	t3,112(t5)
80000768:	07df2a23          	sw	t4,116(t5)
8000076c:	07ef2c23          	sw	t5,120(t5)
80000770:	07ff2e23          	sw	t6,124(t5)
80000774:	34202d73          	csrr	s10,mcause
80000778:	01fd5d13          	srli	s10,s10,0x1f
8000077c:	000d0463          	beqz	s10,80000784 <mmode_intr_vector_6+0x98>
80000780:	1d80106f          	j	80001958 <mmode_intr_handler>
80000784:	00000f97          	auipc	t6,0x0
80000788:	c22f8f93          	addi	t6,t6,-990 # 800003a6 <test_done>
8000078c:	000f8067          	jr	t6

80000790 <mmode_intr_vector_7>:
80000790:	340f1f73          	csrrw	t5,mscratch,t5
80000794:	000a8f33          	add	t5,s5,zero
80000798:	f84f0f13          	addi	t5,t5,-124
8000079c:	001f2223          	sw	ra,4(t5)
800007a0:	002f2423          	sw	sp,8(t5)
800007a4:	003f2623          	sw	gp,12(t5)
800007a8:	004f2823          	sw	tp,16(t5)
800007ac:	005f2a23          	sw	t0,20(t5)
800007b0:	006f2c23          	sw	t1,24(t5)
800007b4:	007f2e23          	sw	t2,28(t5)
800007b8:	028f2023          	sw	s0,32(t5)
800007bc:	029f2223          	sw	s1,36(t5)
800007c0:	02af2423          	sw	a0,40(t5)
800007c4:	02bf2623          	sw	a1,44(t5)
800007c8:	02cf2823          	sw	a2,48(t5)
800007cc:	02df2a23          	sw	a3,52(t5)
800007d0:	02ef2c23          	sw	a4,56(t5)
800007d4:	02ff2e23          	sw	a5,60(t5)
800007d8:	050f2023          	sw	a6,64(t5)
800007dc:	051f2223          	sw	a7,68(t5)
800007e0:	052f2423          	sw	s2,72(t5)
800007e4:	053f2623          	sw	s3,76(t5)
800007e8:	054f2823          	sw	s4,80(t5)
800007ec:	055f2a23          	sw	s5,84(t5)
800007f0:	056f2c23          	sw	s6,88(t5)
800007f4:	057f2e23          	sw	s7,92(t5)
800007f8:	078f2023          	sw	s8,96(t5)
800007fc:	079f2223          	sw	s9,100(t5)
80000800:	07af2423          	sw	s10,104(t5)
80000804:	07bf2623          	sw	s11,108(t5)
80000808:	07cf2823          	sw	t3,112(t5)
8000080c:	07df2a23          	sw	t4,116(t5)
80000810:	07ef2c23          	sw	t5,120(t5)
80000814:	07ff2e23          	sw	t6,124(t5)
80000818:	34202d73          	csrr	s10,mcause
8000081c:	01fd5d13          	srli	s10,s10,0x1f
80000820:	000d0463          	beqz	s10,80000828 <mmode_intr_vector_7+0x98>
80000824:	1340106f          	j	80001958 <mmode_intr_handler>
80000828:	00000f97          	auipc	t6,0x0
8000082c:	b7ef8f93          	addi	t6,t6,-1154 # 800003a6 <test_done>
80000830:	000f8067          	jr	t6

80000834 <mmode_intr_vector_8>:
80000834:	340f1f73          	csrrw	t5,mscratch,t5
80000838:	000a8f33          	add	t5,s5,zero
8000083c:	f84f0f13          	addi	t5,t5,-124
80000840:	001f2223          	sw	ra,4(t5)
80000844:	002f2423          	sw	sp,8(t5)
80000848:	003f2623          	sw	gp,12(t5)
8000084c:	004f2823          	sw	tp,16(t5)
80000850:	005f2a23          	sw	t0,20(t5)
80000854:	006f2c23          	sw	t1,24(t5)
80000858:	007f2e23          	sw	t2,28(t5)
8000085c:	028f2023          	sw	s0,32(t5)
80000860:	029f2223          	sw	s1,36(t5)
80000864:	02af2423          	sw	a0,40(t5)
80000868:	02bf2623          	sw	a1,44(t5)
8000086c:	02cf2823          	sw	a2,48(t5)
80000870:	02df2a23          	sw	a3,52(t5)
80000874:	02ef2c23          	sw	a4,56(t5)
80000878:	02ff2e23          	sw	a5,60(t5)
8000087c:	050f2023          	sw	a6,64(t5)
80000880:	051f2223          	sw	a7,68(t5)
80000884:	052f2423          	sw	s2,72(t5)
80000888:	053f2623          	sw	s3,76(t5)
8000088c:	054f2823          	sw	s4,80(t5)
80000890:	055f2a23          	sw	s5,84(t5)
80000894:	056f2c23          	sw	s6,88(t5)
80000898:	057f2e23          	sw	s7,92(t5)
8000089c:	078f2023          	sw	s8,96(t5)
800008a0:	079f2223          	sw	s9,100(t5)
800008a4:	07af2423          	sw	s10,104(t5)
800008a8:	07bf2623          	sw	s11,108(t5)
800008ac:	07cf2823          	sw	t3,112(t5)
800008b0:	07df2a23          	sw	t4,116(t5)
800008b4:	07ef2c23          	sw	t5,120(t5)
800008b8:	07ff2e23          	sw	t6,124(t5)
800008bc:	34202d73          	csrr	s10,mcause
800008c0:	01fd5d13          	srli	s10,s10,0x1f
800008c4:	000d0463          	beqz	s10,800008cc <mmode_intr_vector_8+0x98>
800008c8:	0900106f          	j	80001958 <mmode_intr_handler>
800008cc:	00000f97          	auipc	t6,0x0
800008d0:	adaf8f93          	addi	t6,t6,-1318 # 800003a6 <test_done>
800008d4:	000f8067          	jr	t6

800008d8 <mmode_intr_vector_9>:
800008d8:	340f1f73          	csrrw	t5,mscratch,t5
800008dc:	000a8f33          	add	t5,s5,zero
800008e0:	f84f0f13          	addi	t5,t5,-124
800008e4:	001f2223          	sw	ra,4(t5)
800008e8:	002f2423          	sw	sp,8(t5)
800008ec:	003f2623          	sw	gp,12(t5)
800008f0:	004f2823          	sw	tp,16(t5)
800008f4:	005f2a23          	sw	t0,20(t5)
800008f8:	006f2c23          	sw	t1,24(t5)
800008fc:	007f2e23          	sw	t2,28(t5)
80000900:	028f2023          	sw	s0,32(t5)
80000904:	029f2223          	sw	s1,36(t5)
80000908:	02af2423          	sw	a0,40(t5)
8000090c:	02bf2623          	sw	a1,44(t5)
80000910:	02cf2823          	sw	a2,48(t5)
80000914:	02df2a23          	sw	a3,52(t5)
80000918:	02ef2c23          	sw	a4,56(t5)
8000091c:	02ff2e23          	sw	a5,60(t5)
80000920:	050f2023          	sw	a6,64(t5)
80000924:	051f2223          	sw	a7,68(t5)
80000928:	052f2423          	sw	s2,72(t5)
8000092c:	053f2623          	sw	s3,76(t5)
80000930:	054f2823          	sw	s4,80(t5)
80000934:	055f2a23          	sw	s5,84(t5)
80000938:	056f2c23          	sw	s6,88(t5)
8000093c:	057f2e23          	sw	s7,92(t5)
80000940:	078f2023          	sw	s8,96(t5)
80000944:	079f2223          	sw	s9,100(t5)
80000948:	07af2423          	sw	s10,104(t5)
8000094c:	07bf2623          	sw	s11,108(t5)
80000950:	07cf2823          	sw	t3,112(t5)
80000954:	07df2a23          	sw	t4,116(t5)
80000958:	07ef2c23          	sw	t5,120(t5)
8000095c:	07ff2e23          	sw	t6,124(t5)
80000960:	34202d73          	csrr	s10,mcause
80000964:	01fd5d13          	srli	s10,s10,0x1f
80000968:	000d0463          	beqz	s10,80000970 <mmode_intr_vector_9+0x98>
8000096c:	7ed0006f          	j	80001958 <mmode_intr_handler>
80000970:	00000f97          	auipc	t6,0x0
80000974:	a36f8f93          	addi	t6,t6,-1482 # 800003a6 <test_done>
80000978:	000f8067          	jr	t6

8000097c <mmode_intr_vector_10>:
8000097c:	340f1f73          	csrrw	t5,mscratch,t5
80000980:	000a8f33          	add	t5,s5,zero
80000984:	f84f0f13          	addi	t5,t5,-124
80000988:	001f2223          	sw	ra,4(t5)
8000098c:	002f2423          	sw	sp,8(t5)
80000990:	003f2623          	sw	gp,12(t5)
80000994:	004f2823          	sw	tp,16(t5)
80000998:	005f2a23          	sw	t0,20(t5)
8000099c:	006f2c23          	sw	t1,24(t5)
800009a0:	007f2e23          	sw	t2,28(t5)
800009a4:	028f2023          	sw	s0,32(t5)
800009a8:	029f2223          	sw	s1,36(t5)
800009ac:	02af2423          	sw	a0,40(t5)
800009b0:	02bf2623          	sw	a1,44(t5)
800009b4:	02cf2823          	sw	a2,48(t5)
800009b8:	02df2a23          	sw	a3,52(t5)
800009bc:	02ef2c23          	sw	a4,56(t5)
800009c0:	02ff2e23          	sw	a5,60(t5)
800009c4:	050f2023          	sw	a6,64(t5)
800009c8:	051f2223          	sw	a7,68(t5)
800009cc:	052f2423          	sw	s2,72(t5)
800009d0:	053f2623          	sw	s3,76(t5)
800009d4:	054f2823          	sw	s4,80(t5)
800009d8:	055f2a23          	sw	s5,84(t5)
800009dc:	056f2c23          	sw	s6,88(t5)
800009e0:	057f2e23          	sw	s7,92(t5)
800009e4:	078f2023          	sw	s8,96(t5)
800009e8:	079f2223          	sw	s9,100(t5)
800009ec:	07af2423          	sw	s10,104(t5)
800009f0:	07bf2623          	sw	s11,108(t5)
800009f4:	07cf2823          	sw	t3,112(t5)
800009f8:	07df2a23          	sw	t4,116(t5)
800009fc:	07ef2c23          	sw	t5,120(t5)
80000a00:	07ff2e23          	sw	t6,124(t5)
80000a04:	34202d73          	csrr	s10,mcause
80000a08:	01fd5d13          	srli	s10,s10,0x1f
80000a0c:	000d0463          	beqz	s10,80000a14 <mmode_intr_vector_10+0x98>
80000a10:	7490006f          	j	80001958 <mmode_intr_handler>
80000a14:	00000f97          	auipc	t6,0x0
80000a18:	992f8f93          	addi	t6,t6,-1646 # 800003a6 <test_done>
80000a1c:	000f8067          	jr	t6

80000a20 <mmode_intr_vector_11>:
80000a20:	340f1f73          	csrrw	t5,mscratch,t5
80000a24:	000a8f33          	add	t5,s5,zero
80000a28:	f84f0f13          	addi	t5,t5,-124
80000a2c:	001f2223          	sw	ra,4(t5)
80000a30:	002f2423          	sw	sp,8(t5)
80000a34:	003f2623          	sw	gp,12(t5)
80000a38:	004f2823          	sw	tp,16(t5)
80000a3c:	005f2a23          	sw	t0,20(t5)
80000a40:	006f2c23          	sw	t1,24(t5)
80000a44:	007f2e23          	sw	t2,28(t5)
80000a48:	028f2023          	sw	s0,32(t5)
80000a4c:	029f2223          	sw	s1,36(t5)
80000a50:	02af2423          	sw	a0,40(t5)
80000a54:	02bf2623          	sw	a1,44(t5)
80000a58:	02cf2823          	sw	a2,48(t5)
80000a5c:	02df2a23          	sw	a3,52(t5)
80000a60:	02ef2c23          	sw	a4,56(t5)
80000a64:	02ff2e23          	sw	a5,60(t5)
80000a68:	050f2023          	sw	a6,64(t5)
80000a6c:	051f2223          	sw	a7,68(t5)
80000a70:	052f2423          	sw	s2,72(t5)
80000a74:	053f2623          	sw	s3,76(t5)
80000a78:	054f2823          	sw	s4,80(t5)
80000a7c:	055f2a23          	sw	s5,84(t5)
80000a80:	056f2c23          	sw	s6,88(t5)
80000a84:	057f2e23          	sw	s7,92(t5)
80000a88:	078f2023          	sw	s8,96(t5)
80000a8c:	079f2223          	sw	s9,100(t5)
80000a90:	07af2423          	sw	s10,104(t5)
80000a94:	07bf2623          	sw	s11,108(t5)
80000a98:	07cf2823          	sw	t3,112(t5)
80000a9c:	07df2a23          	sw	t4,116(t5)
80000aa0:	07ef2c23          	sw	t5,120(t5)
80000aa4:	07ff2e23          	sw	t6,124(t5)
80000aa8:	34202d73          	csrr	s10,mcause
80000aac:	01fd5d13          	srli	s10,s10,0x1f
80000ab0:	000d0463          	beqz	s10,80000ab8 <mmode_intr_vector_11+0x98>
80000ab4:	6a50006f          	j	80001958 <mmode_intr_handler>
80000ab8:	00000f97          	auipc	t6,0x0
80000abc:	8eef8f93          	addi	t6,t6,-1810 # 800003a6 <test_done>
80000ac0:	000f8067          	jr	t6

80000ac4 <mmode_intr_vector_12>:
80000ac4:	340f1f73          	csrrw	t5,mscratch,t5
80000ac8:	000a8f33          	add	t5,s5,zero
80000acc:	f84f0f13          	addi	t5,t5,-124
80000ad0:	001f2223          	sw	ra,4(t5)
80000ad4:	002f2423          	sw	sp,8(t5)
80000ad8:	003f2623          	sw	gp,12(t5)
80000adc:	004f2823          	sw	tp,16(t5)
80000ae0:	005f2a23          	sw	t0,20(t5)
80000ae4:	006f2c23          	sw	t1,24(t5)
80000ae8:	007f2e23          	sw	t2,28(t5)
80000aec:	028f2023          	sw	s0,32(t5)
80000af0:	029f2223          	sw	s1,36(t5)
80000af4:	02af2423          	sw	a0,40(t5)
80000af8:	02bf2623          	sw	a1,44(t5)
80000afc:	02cf2823          	sw	a2,48(t5)
80000b00:	02df2a23          	sw	a3,52(t5)
80000b04:	02ef2c23          	sw	a4,56(t5)
80000b08:	02ff2e23          	sw	a5,60(t5)
80000b0c:	050f2023          	sw	a6,64(t5)
80000b10:	051f2223          	sw	a7,68(t5)
80000b14:	052f2423          	sw	s2,72(t5)
80000b18:	053f2623          	sw	s3,76(t5)
80000b1c:	054f2823          	sw	s4,80(t5)
80000b20:	055f2a23          	sw	s5,84(t5)
80000b24:	056f2c23          	sw	s6,88(t5)
80000b28:	057f2e23          	sw	s7,92(t5)
80000b2c:	078f2023          	sw	s8,96(t5)
80000b30:	079f2223          	sw	s9,100(t5)
80000b34:	07af2423          	sw	s10,104(t5)
80000b38:	07bf2623          	sw	s11,108(t5)
80000b3c:	07cf2823          	sw	t3,112(t5)
80000b40:	07df2a23          	sw	t4,116(t5)
80000b44:	07ef2c23          	sw	t5,120(t5)
80000b48:	07ff2e23          	sw	t6,124(t5)
80000b4c:	34202d73          	csrr	s10,mcause
80000b50:	01fd5d13          	srli	s10,s10,0x1f
80000b54:	000d0463          	beqz	s10,80000b5c <mmode_intr_vector_12+0x98>
80000b58:	6010006f          	j	80001958 <mmode_intr_handler>
80000b5c:	00000f97          	auipc	t6,0x0
80000b60:	84af8f93          	addi	t6,t6,-1974 # 800003a6 <test_done>
80000b64:	000f8067          	jr	t6

80000b68 <mmode_intr_vector_13>:
80000b68:	340f1f73          	csrrw	t5,mscratch,t5
80000b6c:	000a8f33          	add	t5,s5,zero
80000b70:	f84f0f13          	addi	t5,t5,-124
80000b74:	001f2223          	sw	ra,4(t5)
80000b78:	002f2423          	sw	sp,8(t5)
80000b7c:	003f2623          	sw	gp,12(t5)
80000b80:	004f2823          	sw	tp,16(t5)
80000b84:	005f2a23          	sw	t0,20(t5)
80000b88:	006f2c23          	sw	t1,24(t5)
80000b8c:	007f2e23          	sw	t2,28(t5)
80000b90:	028f2023          	sw	s0,32(t5)
80000b94:	029f2223          	sw	s1,36(t5)
80000b98:	02af2423          	sw	a0,40(t5)
80000b9c:	02bf2623          	sw	a1,44(t5)
80000ba0:	02cf2823          	sw	a2,48(t5)
80000ba4:	02df2a23          	sw	a3,52(t5)
80000ba8:	02ef2c23          	sw	a4,56(t5)
80000bac:	02ff2e23          	sw	a5,60(t5)
80000bb0:	050f2023          	sw	a6,64(t5)
80000bb4:	051f2223          	sw	a7,68(t5)
80000bb8:	052f2423          	sw	s2,72(t5)
80000bbc:	053f2623          	sw	s3,76(t5)
80000bc0:	054f2823          	sw	s4,80(t5)
80000bc4:	055f2a23          	sw	s5,84(t5)
80000bc8:	056f2c23          	sw	s6,88(t5)
80000bcc:	057f2e23          	sw	s7,92(t5)
80000bd0:	078f2023          	sw	s8,96(t5)
80000bd4:	079f2223          	sw	s9,100(t5)
80000bd8:	07af2423          	sw	s10,104(t5)
80000bdc:	07bf2623          	sw	s11,108(t5)
80000be0:	07cf2823          	sw	t3,112(t5)
80000be4:	07df2a23          	sw	t4,116(t5)
80000be8:	07ef2c23          	sw	t5,120(t5)
80000bec:	07ff2e23          	sw	t6,124(t5)
80000bf0:	34202d73          	csrr	s10,mcause
80000bf4:	01fd5d13          	srli	s10,s10,0x1f
80000bf8:	000d0463          	beqz	s10,80000c00 <mmode_intr_vector_13+0x98>
80000bfc:	55d0006f          	j	80001958 <mmode_intr_handler>
80000c00:	ffffff97          	auipc	t6,0xfffff
80000c04:	7a6f8f93          	addi	t6,t6,1958 # 800003a6 <test_done>
80000c08:	000f8067          	jr	t6

80000c0c <mmode_intr_vector_14>:
80000c0c:	340f1f73          	csrrw	t5,mscratch,t5
80000c10:	000a8f33          	add	t5,s5,zero
80000c14:	f84f0f13          	addi	t5,t5,-124
80000c18:	001f2223          	sw	ra,4(t5)
80000c1c:	002f2423          	sw	sp,8(t5)
80000c20:	003f2623          	sw	gp,12(t5)
80000c24:	004f2823          	sw	tp,16(t5)
80000c28:	005f2a23          	sw	t0,20(t5)
80000c2c:	006f2c23          	sw	t1,24(t5)
80000c30:	007f2e23          	sw	t2,28(t5)
80000c34:	028f2023          	sw	s0,32(t5)
80000c38:	029f2223          	sw	s1,36(t5)
80000c3c:	02af2423          	sw	a0,40(t5)
80000c40:	02bf2623          	sw	a1,44(t5)
80000c44:	02cf2823          	sw	a2,48(t5)
80000c48:	02df2a23          	sw	a3,52(t5)
80000c4c:	02ef2c23          	sw	a4,56(t5)
80000c50:	02ff2e23          	sw	a5,60(t5)
80000c54:	050f2023          	sw	a6,64(t5)
80000c58:	051f2223          	sw	a7,68(t5)
80000c5c:	052f2423          	sw	s2,72(t5)
80000c60:	053f2623          	sw	s3,76(t5)
80000c64:	054f2823          	sw	s4,80(t5)
80000c68:	055f2a23          	sw	s5,84(t5)
80000c6c:	056f2c23          	sw	s6,88(t5)
80000c70:	057f2e23          	sw	s7,92(t5)
80000c74:	078f2023          	sw	s8,96(t5)
80000c78:	079f2223          	sw	s9,100(t5)
80000c7c:	07af2423          	sw	s10,104(t5)
80000c80:	07bf2623          	sw	s11,108(t5)
80000c84:	07cf2823          	sw	t3,112(t5)
80000c88:	07df2a23          	sw	t4,116(t5)
80000c8c:	07ef2c23          	sw	t5,120(t5)
80000c90:	07ff2e23          	sw	t6,124(t5)
80000c94:	34202d73          	csrr	s10,mcause
80000c98:	01fd5d13          	srli	s10,s10,0x1f
80000c9c:	000d0463          	beqz	s10,80000ca4 <mmode_intr_vector_14+0x98>
80000ca0:	4b90006f          	j	80001958 <mmode_intr_handler>
80000ca4:	ffffff97          	auipc	t6,0xfffff
80000ca8:	702f8f93          	addi	t6,t6,1794 # 800003a6 <test_done>
80000cac:	000f8067          	jr	t6

80000cb0 <mmode_intr_vector_15>:
80000cb0:	340f1f73          	csrrw	t5,mscratch,t5
80000cb4:	000a8f33          	add	t5,s5,zero
80000cb8:	f84f0f13          	addi	t5,t5,-124
80000cbc:	001f2223          	sw	ra,4(t5)
80000cc0:	002f2423          	sw	sp,8(t5)
80000cc4:	003f2623          	sw	gp,12(t5)
80000cc8:	004f2823          	sw	tp,16(t5)
80000ccc:	005f2a23          	sw	t0,20(t5)
80000cd0:	006f2c23          	sw	t1,24(t5)
80000cd4:	007f2e23          	sw	t2,28(t5)
80000cd8:	028f2023          	sw	s0,32(t5)
80000cdc:	029f2223          	sw	s1,36(t5)
80000ce0:	02af2423          	sw	a0,40(t5)
80000ce4:	02bf2623          	sw	a1,44(t5)
80000ce8:	02cf2823          	sw	a2,48(t5)
80000cec:	02df2a23          	sw	a3,52(t5)
80000cf0:	02ef2c23          	sw	a4,56(t5)
80000cf4:	02ff2e23          	sw	a5,60(t5)
80000cf8:	050f2023          	sw	a6,64(t5)
80000cfc:	051f2223          	sw	a7,68(t5)
80000d00:	052f2423          	sw	s2,72(t5)
80000d04:	053f2623          	sw	s3,76(t5)
80000d08:	054f2823          	sw	s4,80(t5)
80000d0c:	055f2a23          	sw	s5,84(t5)
80000d10:	056f2c23          	sw	s6,88(t5)
80000d14:	057f2e23          	sw	s7,92(t5)
80000d18:	078f2023          	sw	s8,96(t5)
80000d1c:	079f2223          	sw	s9,100(t5)
80000d20:	07af2423          	sw	s10,104(t5)
80000d24:	07bf2623          	sw	s11,108(t5)
80000d28:	07cf2823          	sw	t3,112(t5)
80000d2c:	07df2a23          	sw	t4,116(t5)
80000d30:	07ef2c23          	sw	t5,120(t5)
80000d34:	07ff2e23          	sw	t6,124(t5)
80000d38:	34202d73          	csrr	s10,mcause
80000d3c:	01fd5d13          	srli	s10,s10,0x1f
80000d40:	000d0463          	beqz	s10,80000d48 <mmode_intr_vector_15+0x98>
80000d44:	4150006f          	j	80001958 <mmode_intr_handler>
80000d48:	ffffff97          	auipc	t6,0xfffff
80000d4c:	65ef8f93          	addi	t6,t6,1630 # 800003a6 <test_done>
80000d50:	000f8067          	jr	t6

80000d54 <mmode_intr_vector_16>:
80000d54:	340f1f73          	csrrw	t5,mscratch,t5
80000d58:	000a8f33          	add	t5,s5,zero
80000d5c:	f84f0f13          	addi	t5,t5,-124
80000d60:	001f2223          	sw	ra,4(t5)
80000d64:	002f2423          	sw	sp,8(t5)
80000d68:	003f2623          	sw	gp,12(t5)
80000d6c:	004f2823          	sw	tp,16(t5)
80000d70:	005f2a23          	sw	t0,20(t5)
80000d74:	006f2c23          	sw	t1,24(t5)
80000d78:	007f2e23          	sw	t2,28(t5)
80000d7c:	028f2023          	sw	s0,32(t5)
80000d80:	029f2223          	sw	s1,36(t5)
80000d84:	02af2423          	sw	a0,40(t5)
80000d88:	02bf2623          	sw	a1,44(t5)
80000d8c:	02cf2823          	sw	a2,48(t5)
80000d90:	02df2a23          	sw	a3,52(t5)
80000d94:	02ef2c23          	sw	a4,56(t5)
80000d98:	02ff2e23          	sw	a5,60(t5)
80000d9c:	050f2023          	sw	a6,64(t5)
80000da0:	051f2223          	sw	a7,68(t5)
80000da4:	052f2423          	sw	s2,72(t5)
80000da8:	053f2623          	sw	s3,76(t5)
80000dac:	054f2823          	sw	s4,80(t5)
80000db0:	055f2a23          	sw	s5,84(t5)
80000db4:	056f2c23          	sw	s6,88(t5)
80000db8:	057f2e23          	sw	s7,92(t5)
80000dbc:	078f2023          	sw	s8,96(t5)
80000dc0:	079f2223          	sw	s9,100(t5)
80000dc4:	07af2423          	sw	s10,104(t5)
80000dc8:	07bf2623          	sw	s11,108(t5)
80000dcc:	07cf2823          	sw	t3,112(t5)
80000dd0:	07df2a23          	sw	t4,116(t5)
80000dd4:	07ef2c23          	sw	t5,120(t5)
80000dd8:	07ff2e23          	sw	t6,124(t5)
80000ddc:	34202d73          	csrr	s10,mcause
80000de0:	01fd5d13          	srli	s10,s10,0x1f
80000de4:	000d0463          	beqz	s10,80000dec <mmode_intr_vector_16+0x98>
80000de8:	3710006f          	j	80001958 <mmode_intr_handler>
80000dec:	ffffff97          	auipc	t6,0xfffff
80000df0:	5baf8f93          	addi	t6,t6,1466 # 800003a6 <test_done>
80000df4:	000f8067          	jr	t6

80000df8 <mmode_intr_vector_17>:
80000df8:	340f1f73          	csrrw	t5,mscratch,t5
80000dfc:	000a8f33          	add	t5,s5,zero
80000e00:	f84f0f13          	addi	t5,t5,-124
80000e04:	001f2223          	sw	ra,4(t5)
80000e08:	002f2423          	sw	sp,8(t5)
80000e0c:	003f2623          	sw	gp,12(t5)
80000e10:	004f2823          	sw	tp,16(t5)
80000e14:	005f2a23          	sw	t0,20(t5)
80000e18:	006f2c23          	sw	t1,24(t5)
80000e1c:	007f2e23          	sw	t2,28(t5)
80000e20:	028f2023          	sw	s0,32(t5)
80000e24:	029f2223          	sw	s1,36(t5)
80000e28:	02af2423          	sw	a0,40(t5)
80000e2c:	02bf2623          	sw	a1,44(t5)
80000e30:	02cf2823          	sw	a2,48(t5)
80000e34:	02df2a23          	sw	a3,52(t5)
80000e38:	02ef2c23          	sw	a4,56(t5)
80000e3c:	02ff2e23          	sw	a5,60(t5)
80000e40:	050f2023          	sw	a6,64(t5)
80000e44:	051f2223          	sw	a7,68(t5)
80000e48:	052f2423          	sw	s2,72(t5)
80000e4c:	053f2623          	sw	s3,76(t5)
80000e50:	054f2823          	sw	s4,80(t5)
80000e54:	055f2a23          	sw	s5,84(t5)
80000e58:	056f2c23          	sw	s6,88(t5)
80000e5c:	057f2e23          	sw	s7,92(t5)
80000e60:	078f2023          	sw	s8,96(t5)
80000e64:	079f2223          	sw	s9,100(t5)
80000e68:	07af2423          	sw	s10,104(t5)
80000e6c:	07bf2623          	sw	s11,108(t5)
80000e70:	07cf2823          	sw	t3,112(t5)
80000e74:	07df2a23          	sw	t4,116(t5)
80000e78:	07ef2c23          	sw	t5,120(t5)
80000e7c:	07ff2e23          	sw	t6,124(t5)
80000e80:	34202d73          	csrr	s10,mcause
80000e84:	01fd5d13          	srli	s10,s10,0x1f
80000e88:	000d0463          	beqz	s10,80000e90 <mmode_intr_vector_17+0x98>
80000e8c:	2cd0006f          	j	80001958 <mmode_intr_handler>
80000e90:	ffffff97          	auipc	t6,0xfffff
80000e94:	516f8f93          	addi	t6,t6,1302 # 800003a6 <test_done>
80000e98:	000f8067          	jr	t6

80000e9c <mmode_intr_vector_18>:
80000e9c:	340f1f73          	csrrw	t5,mscratch,t5
80000ea0:	000a8f33          	add	t5,s5,zero
80000ea4:	f84f0f13          	addi	t5,t5,-124
80000ea8:	001f2223          	sw	ra,4(t5)
80000eac:	002f2423          	sw	sp,8(t5)
80000eb0:	003f2623          	sw	gp,12(t5)
80000eb4:	004f2823          	sw	tp,16(t5)
80000eb8:	005f2a23          	sw	t0,20(t5)
80000ebc:	006f2c23          	sw	t1,24(t5)
80000ec0:	007f2e23          	sw	t2,28(t5)
80000ec4:	028f2023          	sw	s0,32(t5)
80000ec8:	029f2223          	sw	s1,36(t5)
80000ecc:	02af2423          	sw	a0,40(t5)
80000ed0:	02bf2623          	sw	a1,44(t5)
80000ed4:	02cf2823          	sw	a2,48(t5)
80000ed8:	02df2a23          	sw	a3,52(t5)
80000edc:	02ef2c23          	sw	a4,56(t5)
80000ee0:	02ff2e23          	sw	a5,60(t5)
80000ee4:	050f2023          	sw	a6,64(t5)
80000ee8:	051f2223          	sw	a7,68(t5)
80000eec:	052f2423          	sw	s2,72(t5)
80000ef0:	053f2623          	sw	s3,76(t5)
80000ef4:	054f2823          	sw	s4,80(t5)
80000ef8:	055f2a23          	sw	s5,84(t5)
80000efc:	056f2c23          	sw	s6,88(t5)
80000f00:	057f2e23          	sw	s7,92(t5)
80000f04:	078f2023          	sw	s8,96(t5)
80000f08:	079f2223          	sw	s9,100(t5)
80000f0c:	07af2423          	sw	s10,104(t5)
80000f10:	07bf2623          	sw	s11,108(t5)
80000f14:	07cf2823          	sw	t3,112(t5)
80000f18:	07df2a23          	sw	t4,116(t5)
80000f1c:	07ef2c23          	sw	t5,120(t5)
80000f20:	07ff2e23          	sw	t6,124(t5)
80000f24:	34202d73          	csrr	s10,mcause
80000f28:	01fd5d13          	srli	s10,s10,0x1f
80000f2c:	000d0463          	beqz	s10,80000f34 <mmode_intr_vector_18+0x98>
80000f30:	2290006f          	j	80001958 <mmode_intr_handler>
80000f34:	ffffff97          	auipc	t6,0xfffff
80000f38:	472f8f93          	addi	t6,t6,1138 # 800003a6 <test_done>
80000f3c:	000f8067          	jr	t6

80000f40 <mmode_intr_vector_19>:
80000f40:	340f1f73          	csrrw	t5,mscratch,t5
80000f44:	000a8f33          	add	t5,s5,zero
80000f48:	f84f0f13          	addi	t5,t5,-124
80000f4c:	001f2223          	sw	ra,4(t5)
80000f50:	002f2423          	sw	sp,8(t5)
80000f54:	003f2623          	sw	gp,12(t5)
80000f58:	004f2823          	sw	tp,16(t5)
80000f5c:	005f2a23          	sw	t0,20(t5)
80000f60:	006f2c23          	sw	t1,24(t5)
80000f64:	007f2e23          	sw	t2,28(t5)
80000f68:	028f2023          	sw	s0,32(t5)
80000f6c:	029f2223          	sw	s1,36(t5)
80000f70:	02af2423          	sw	a0,40(t5)
80000f74:	02bf2623          	sw	a1,44(t5)
80000f78:	02cf2823          	sw	a2,48(t5)
80000f7c:	02df2a23          	sw	a3,52(t5)
80000f80:	02ef2c23          	sw	a4,56(t5)
80000f84:	02ff2e23          	sw	a5,60(t5)
80000f88:	050f2023          	sw	a6,64(t5)
80000f8c:	051f2223          	sw	a7,68(t5)
80000f90:	052f2423          	sw	s2,72(t5)
80000f94:	053f2623          	sw	s3,76(t5)
80000f98:	054f2823          	sw	s4,80(t5)
80000f9c:	055f2a23          	sw	s5,84(t5)
80000fa0:	056f2c23          	sw	s6,88(t5)
80000fa4:	057f2e23          	sw	s7,92(t5)
80000fa8:	078f2023          	sw	s8,96(t5)
80000fac:	079f2223          	sw	s9,100(t5)
80000fb0:	07af2423          	sw	s10,104(t5)
80000fb4:	07bf2623          	sw	s11,108(t5)
80000fb8:	07cf2823          	sw	t3,112(t5)
80000fbc:	07df2a23          	sw	t4,116(t5)
80000fc0:	07ef2c23          	sw	t5,120(t5)
80000fc4:	07ff2e23          	sw	t6,124(t5)
80000fc8:	34202d73          	csrr	s10,mcause
80000fcc:	01fd5d13          	srli	s10,s10,0x1f
80000fd0:	000d0463          	beqz	s10,80000fd8 <mmode_intr_vector_19+0x98>
80000fd4:	1850006f          	j	80001958 <mmode_intr_handler>
80000fd8:	ffffff97          	auipc	t6,0xfffff
80000fdc:	3cef8f93          	addi	t6,t6,974 # 800003a6 <test_done>
80000fe0:	000f8067          	jr	t6

80000fe4 <mmode_intr_vector_20>:
80000fe4:	340f1f73          	csrrw	t5,mscratch,t5
80000fe8:	000a8f33          	add	t5,s5,zero
80000fec:	f84f0f13          	addi	t5,t5,-124
80000ff0:	001f2223          	sw	ra,4(t5)
80000ff4:	002f2423          	sw	sp,8(t5)
80000ff8:	003f2623          	sw	gp,12(t5)
80000ffc:	004f2823          	sw	tp,16(t5)
80001000:	005f2a23          	sw	t0,20(t5)
80001004:	006f2c23          	sw	t1,24(t5)
80001008:	007f2e23          	sw	t2,28(t5)
8000100c:	028f2023          	sw	s0,32(t5)
80001010:	029f2223          	sw	s1,36(t5)
80001014:	02af2423          	sw	a0,40(t5)
80001018:	02bf2623          	sw	a1,44(t5)
8000101c:	02cf2823          	sw	a2,48(t5)
80001020:	02df2a23          	sw	a3,52(t5)
80001024:	02ef2c23          	sw	a4,56(t5)
80001028:	02ff2e23          	sw	a5,60(t5)
8000102c:	050f2023          	sw	a6,64(t5)
80001030:	051f2223          	sw	a7,68(t5)
80001034:	052f2423          	sw	s2,72(t5)
80001038:	053f2623          	sw	s3,76(t5)
8000103c:	054f2823          	sw	s4,80(t5)
80001040:	055f2a23          	sw	s5,84(t5)
80001044:	056f2c23          	sw	s6,88(t5)
80001048:	057f2e23          	sw	s7,92(t5)
8000104c:	078f2023          	sw	s8,96(t5)
80001050:	079f2223          	sw	s9,100(t5)
80001054:	07af2423          	sw	s10,104(t5)
80001058:	07bf2623          	sw	s11,108(t5)
8000105c:	07cf2823          	sw	t3,112(t5)
80001060:	07df2a23          	sw	t4,116(t5)
80001064:	07ef2c23          	sw	t5,120(t5)
80001068:	07ff2e23          	sw	t6,124(t5)
8000106c:	34202d73          	csrr	s10,mcause
80001070:	01fd5d13          	srli	s10,s10,0x1f
80001074:	000d0463          	beqz	s10,8000107c <mmode_intr_vector_20+0x98>
80001078:	0e10006f          	j	80001958 <mmode_intr_handler>
8000107c:	ffffff97          	auipc	t6,0xfffff
80001080:	32af8f93          	addi	t6,t6,810 # 800003a6 <test_done>
80001084:	000f8067          	jr	t6

80001088 <mmode_intr_vector_21>:
80001088:	340f1f73          	csrrw	t5,mscratch,t5
8000108c:	000a8f33          	add	t5,s5,zero
80001090:	f84f0f13          	addi	t5,t5,-124
80001094:	001f2223          	sw	ra,4(t5)
80001098:	002f2423          	sw	sp,8(t5)
8000109c:	003f2623          	sw	gp,12(t5)
800010a0:	004f2823          	sw	tp,16(t5)
800010a4:	005f2a23          	sw	t0,20(t5)
800010a8:	006f2c23          	sw	t1,24(t5)
800010ac:	007f2e23          	sw	t2,28(t5)
800010b0:	028f2023          	sw	s0,32(t5)
800010b4:	029f2223          	sw	s1,36(t5)
800010b8:	02af2423          	sw	a0,40(t5)
800010bc:	02bf2623          	sw	a1,44(t5)
800010c0:	02cf2823          	sw	a2,48(t5)
800010c4:	02df2a23          	sw	a3,52(t5)
800010c8:	02ef2c23          	sw	a4,56(t5)
800010cc:	02ff2e23          	sw	a5,60(t5)
800010d0:	050f2023          	sw	a6,64(t5)
800010d4:	051f2223          	sw	a7,68(t5)
800010d8:	052f2423          	sw	s2,72(t5)
800010dc:	053f2623          	sw	s3,76(t5)
800010e0:	054f2823          	sw	s4,80(t5)
800010e4:	055f2a23          	sw	s5,84(t5)
800010e8:	056f2c23          	sw	s6,88(t5)
800010ec:	057f2e23          	sw	s7,92(t5)
800010f0:	078f2023          	sw	s8,96(t5)
800010f4:	079f2223          	sw	s9,100(t5)
800010f8:	07af2423          	sw	s10,104(t5)
800010fc:	07bf2623          	sw	s11,108(t5)
80001100:	07cf2823          	sw	t3,112(t5)
80001104:	07df2a23          	sw	t4,116(t5)
80001108:	07ef2c23          	sw	t5,120(t5)
8000110c:	07ff2e23          	sw	t6,124(t5)
80001110:	34202d73          	csrr	s10,mcause
80001114:	01fd5d13          	srli	s10,s10,0x1f
80001118:	000d0463          	beqz	s10,80001120 <mmode_intr_vector_21+0x98>
8000111c:	03d0006f          	j	80001958 <mmode_intr_handler>
80001120:	ffffff97          	auipc	t6,0xfffff
80001124:	286f8f93          	addi	t6,t6,646 # 800003a6 <test_done>
80001128:	000f8067          	jr	t6

8000112c <mmode_intr_vector_22>:
8000112c:	340f1f73          	csrrw	t5,mscratch,t5
80001130:	000a8f33          	add	t5,s5,zero
80001134:	f84f0f13          	addi	t5,t5,-124
80001138:	001f2223          	sw	ra,4(t5)
8000113c:	002f2423          	sw	sp,8(t5)
80001140:	003f2623          	sw	gp,12(t5)
80001144:	004f2823          	sw	tp,16(t5)
80001148:	005f2a23          	sw	t0,20(t5)
8000114c:	006f2c23          	sw	t1,24(t5)
80001150:	007f2e23          	sw	t2,28(t5)
80001154:	028f2023          	sw	s0,32(t5)
80001158:	029f2223          	sw	s1,36(t5)
8000115c:	02af2423          	sw	a0,40(t5)
80001160:	02bf2623          	sw	a1,44(t5)
80001164:	02cf2823          	sw	a2,48(t5)
80001168:	02df2a23          	sw	a3,52(t5)
8000116c:	02ef2c23          	sw	a4,56(t5)
80001170:	02ff2e23          	sw	a5,60(t5)
80001174:	050f2023          	sw	a6,64(t5)
80001178:	051f2223          	sw	a7,68(t5)
8000117c:	052f2423          	sw	s2,72(t5)
80001180:	053f2623          	sw	s3,76(t5)
80001184:	054f2823          	sw	s4,80(t5)
80001188:	055f2a23          	sw	s5,84(t5)
8000118c:	056f2c23          	sw	s6,88(t5)
80001190:	057f2e23          	sw	s7,92(t5)
80001194:	078f2023          	sw	s8,96(t5)
80001198:	079f2223          	sw	s9,100(t5)
8000119c:	07af2423          	sw	s10,104(t5)
800011a0:	07bf2623          	sw	s11,108(t5)
800011a4:	07cf2823          	sw	t3,112(t5)
800011a8:	07df2a23          	sw	t4,116(t5)
800011ac:	07ef2c23          	sw	t5,120(t5)
800011b0:	07ff2e23          	sw	t6,124(t5)
800011b4:	34202d73          	csrr	s10,mcause
800011b8:	01fd5d13          	srli	s10,s10,0x1f
800011bc:	000d0363          	beqz	s10,800011c2 <mmode_intr_vector_22+0x96>
800011c0:	af61                	j	80001958 <mmode_intr_handler>
800011c2:	ffffff97          	auipc	t6,0xfffff
800011c6:	1e4f8f93          	addi	t6,t6,484 # 800003a6 <test_done>
800011ca:	000f8067          	jr	t6

800011ce <mmode_intr_vector_23>:
800011ce:	340f1f73          	csrrw	t5,mscratch,t5
800011d2:	000a8f33          	add	t5,s5,zero
800011d6:	f84f0f13          	addi	t5,t5,-124
800011da:	001f2223          	sw	ra,4(t5)
800011de:	002f2423          	sw	sp,8(t5)
800011e2:	003f2623          	sw	gp,12(t5)
800011e6:	004f2823          	sw	tp,16(t5)
800011ea:	005f2a23          	sw	t0,20(t5)
800011ee:	006f2c23          	sw	t1,24(t5)
800011f2:	007f2e23          	sw	t2,28(t5)
800011f6:	028f2023          	sw	s0,32(t5)
800011fa:	029f2223          	sw	s1,36(t5)
800011fe:	02af2423          	sw	a0,40(t5)
80001202:	02bf2623          	sw	a1,44(t5)
80001206:	02cf2823          	sw	a2,48(t5)
8000120a:	02df2a23          	sw	a3,52(t5)
8000120e:	02ef2c23          	sw	a4,56(t5)
80001212:	02ff2e23          	sw	a5,60(t5)
80001216:	050f2023          	sw	a6,64(t5)
8000121a:	051f2223          	sw	a7,68(t5)
8000121e:	052f2423          	sw	s2,72(t5)
80001222:	053f2623          	sw	s3,76(t5)
80001226:	054f2823          	sw	s4,80(t5)
8000122a:	055f2a23          	sw	s5,84(t5)
8000122e:	056f2c23          	sw	s6,88(t5)
80001232:	057f2e23          	sw	s7,92(t5)
80001236:	078f2023          	sw	s8,96(t5)
8000123a:	079f2223          	sw	s9,100(t5)
8000123e:	07af2423          	sw	s10,104(t5)
80001242:	07bf2623          	sw	s11,108(t5)
80001246:	07cf2823          	sw	t3,112(t5)
8000124a:	07df2a23          	sw	t4,116(t5)
8000124e:	07ef2c23          	sw	t5,120(t5)
80001252:	07ff2e23          	sw	t6,124(t5)
80001256:	34202d73          	csrr	s10,mcause
8000125a:	01fd5d13          	srli	s10,s10,0x1f
8000125e:	000d0363          	beqz	s10,80001264 <mmode_intr_vector_23+0x96>
80001262:	addd                	j	80001958 <mmode_intr_handler>
80001264:	ffffff97          	auipc	t6,0xfffff
80001268:	142f8f93          	addi	t6,t6,322 # 800003a6 <test_done>
8000126c:	000f8067          	jr	t6

80001270 <mmode_intr_vector_24>:
80001270:	340f1f73          	csrrw	t5,mscratch,t5
80001274:	000a8f33          	add	t5,s5,zero
80001278:	f84f0f13          	addi	t5,t5,-124
8000127c:	001f2223          	sw	ra,4(t5)
80001280:	002f2423          	sw	sp,8(t5)
80001284:	003f2623          	sw	gp,12(t5)
80001288:	004f2823          	sw	tp,16(t5)
8000128c:	005f2a23          	sw	t0,20(t5)
80001290:	006f2c23          	sw	t1,24(t5)
80001294:	007f2e23          	sw	t2,28(t5)
80001298:	028f2023          	sw	s0,32(t5)
8000129c:	029f2223          	sw	s1,36(t5)
800012a0:	02af2423          	sw	a0,40(t5)
800012a4:	02bf2623          	sw	a1,44(t5)
800012a8:	02cf2823          	sw	a2,48(t5)
800012ac:	02df2a23          	sw	a3,52(t5)
800012b0:	02ef2c23          	sw	a4,56(t5)
800012b4:	02ff2e23          	sw	a5,60(t5)
800012b8:	050f2023          	sw	a6,64(t5)
800012bc:	051f2223          	sw	a7,68(t5)
800012c0:	052f2423          	sw	s2,72(t5)
800012c4:	053f2623          	sw	s3,76(t5)
800012c8:	054f2823          	sw	s4,80(t5)
800012cc:	055f2a23          	sw	s5,84(t5)
800012d0:	056f2c23          	sw	s6,88(t5)
800012d4:	057f2e23          	sw	s7,92(t5)
800012d8:	078f2023          	sw	s8,96(t5)
800012dc:	079f2223          	sw	s9,100(t5)
800012e0:	07af2423          	sw	s10,104(t5)
800012e4:	07bf2623          	sw	s11,108(t5)
800012e8:	07cf2823          	sw	t3,112(t5)
800012ec:	07df2a23          	sw	t4,116(t5)
800012f0:	07ef2c23          	sw	t5,120(t5)
800012f4:	07ff2e23          	sw	t6,124(t5)
800012f8:	34202d73          	csrr	s10,mcause
800012fc:	01fd5d13          	srli	s10,s10,0x1f
80001300:	000d0363          	beqz	s10,80001306 <mmode_intr_vector_24+0x96>
80001304:	ad91                	j	80001958 <mmode_intr_handler>
80001306:	ffffff97          	auipc	t6,0xfffff
8000130a:	0a0f8f93          	addi	t6,t6,160 # 800003a6 <test_done>
8000130e:	000f8067          	jr	t6

80001312 <mmode_intr_vector_25>:
80001312:	340f1f73          	csrrw	t5,mscratch,t5
80001316:	000a8f33          	add	t5,s5,zero
8000131a:	f84f0f13          	addi	t5,t5,-124
8000131e:	001f2223          	sw	ra,4(t5)
80001322:	002f2423          	sw	sp,8(t5)
80001326:	003f2623          	sw	gp,12(t5)
8000132a:	004f2823          	sw	tp,16(t5)
8000132e:	005f2a23          	sw	t0,20(t5)
80001332:	006f2c23          	sw	t1,24(t5)
80001336:	007f2e23          	sw	t2,28(t5)
8000133a:	028f2023          	sw	s0,32(t5)
8000133e:	029f2223          	sw	s1,36(t5)
80001342:	02af2423          	sw	a0,40(t5)
80001346:	02bf2623          	sw	a1,44(t5)
8000134a:	02cf2823          	sw	a2,48(t5)
8000134e:	02df2a23          	sw	a3,52(t5)
80001352:	02ef2c23          	sw	a4,56(t5)
80001356:	02ff2e23          	sw	a5,60(t5)
8000135a:	050f2023          	sw	a6,64(t5)
8000135e:	051f2223          	sw	a7,68(t5)
80001362:	052f2423          	sw	s2,72(t5)
80001366:	053f2623          	sw	s3,76(t5)
8000136a:	054f2823          	sw	s4,80(t5)
8000136e:	055f2a23          	sw	s5,84(t5)
80001372:	056f2c23          	sw	s6,88(t5)
80001376:	057f2e23          	sw	s7,92(t5)
8000137a:	078f2023          	sw	s8,96(t5)
8000137e:	079f2223          	sw	s9,100(t5)
80001382:	07af2423          	sw	s10,104(t5)
80001386:	07bf2623          	sw	s11,108(t5)
8000138a:	07cf2823          	sw	t3,112(t5)
8000138e:	07df2a23          	sw	t4,116(t5)
80001392:	07ef2c23          	sw	t5,120(t5)
80001396:	07ff2e23          	sw	t6,124(t5)
8000139a:	34202d73          	csrr	s10,mcause
8000139e:	01fd5d13          	srli	s10,s10,0x1f
800013a2:	000d0363          	beqz	s10,800013a8 <mmode_intr_vector_25+0x96>
800013a6:	ab4d                	j	80001958 <mmode_intr_handler>
800013a8:	ffffff97          	auipc	t6,0xfffff
800013ac:	ffef8f93          	addi	t6,t6,-2 # 800003a6 <test_done>
800013b0:	000f8067          	jr	t6

800013b4 <mmode_intr_vector_26>:
800013b4:	340f1f73          	csrrw	t5,mscratch,t5
800013b8:	000a8f33          	add	t5,s5,zero
800013bc:	f84f0f13          	addi	t5,t5,-124
800013c0:	001f2223          	sw	ra,4(t5)
800013c4:	002f2423          	sw	sp,8(t5)
800013c8:	003f2623          	sw	gp,12(t5)
800013cc:	004f2823          	sw	tp,16(t5)
800013d0:	005f2a23          	sw	t0,20(t5)
800013d4:	006f2c23          	sw	t1,24(t5)
800013d8:	007f2e23          	sw	t2,28(t5)
800013dc:	028f2023          	sw	s0,32(t5)
800013e0:	029f2223          	sw	s1,36(t5)
800013e4:	02af2423          	sw	a0,40(t5)
800013e8:	02bf2623          	sw	a1,44(t5)
800013ec:	02cf2823          	sw	a2,48(t5)
800013f0:	02df2a23          	sw	a3,52(t5)
800013f4:	02ef2c23          	sw	a4,56(t5)
800013f8:	02ff2e23          	sw	a5,60(t5)
800013fc:	050f2023          	sw	a6,64(t5)
80001400:	051f2223          	sw	a7,68(t5)
80001404:	052f2423          	sw	s2,72(t5)
80001408:	053f2623          	sw	s3,76(t5)
8000140c:	054f2823          	sw	s4,80(t5)
80001410:	055f2a23          	sw	s5,84(t5)
80001414:	056f2c23          	sw	s6,88(t5)
80001418:	057f2e23          	sw	s7,92(t5)
8000141c:	078f2023          	sw	s8,96(t5)
80001420:	079f2223          	sw	s9,100(t5)
80001424:	07af2423          	sw	s10,104(t5)
80001428:	07bf2623          	sw	s11,108(t5)
8000142c:	07cf2823          	sw	t3,112(t5)
80001430:	07df2a23          	sw	t4,116(t5)
80001434:	07ef2c23          	sw	t5,120(t5)
80001438:	07ff2e23          	sw	t6,124(t5)
8000143c:	34202d73          	csrr	s10,mcause
80001440:	01fd5d13          	srli	s10,s10,0x1f
80001444:	000d0363          	beqz	s10,8000144a <mmode_intr_vector_26+0x96>
80001448:	ab01                	j	80001958 <mmode_intr_handler>
8000144a:	ffffff97          	auipc	t6,0xfffff
8000144e:	f5cf8f93          	addi	t6,t6,-164 # 800003a6 <test_done>
80001452:	000f8067          	jr	t6

80001456 <mmode_intr_vector_27>:
80001456:	340f1f73          	csrrw	t5,mscratch,t5
8000145a:	000a8f33          	add	t5,s5,zero
8000145e:	f84f0f13          	addi	t5,t5,-124
80001462:	001f2223          	sw	ra,4(t5)
80001466:	002f2423          	sw	sp,8(t5)
8000146a:	003f2623          	sw	gp,12(t5)
8000146e:	004f2823          	sw	tp,16(t5)
80001472:	005f2a23          	sw	t0,20(t5)
80001476:	006f2c23          	sw	t1,24(t5)
8000147a:	007f2e23          	sw	t2,28(t5)
8000147e:	028f2023          	sw	s0,32(t5)
80001482:	029f2223          	sw	s1,36(t5)
80001486:	02af2423          	sw	a0,40(t5)
8000148a:	02bf2623          	sw	a1,44(t5)
8000148e:	02cf2823          	sw	a2,48(t5)
80001492:	02df2a23          	sw	a3,52(t5)
80001496:	02ef2c23          	sw	a4,56(t5)
8000149a:	02ff2e23          	sw	a5,60(t5)
8000149e:	050f2023          	sw	a6,64(t5)
800014a2:	051f2223          	sw	a7,68(t5)
800014a6:	052f2423          	sw	s2,72(t5)
800014aa:	053f2623          	sw	s3,76(t5)
800014ae:	054f2823          	sw	s4,80(t5)
800014b2:	055f2a23          	sw	s5,84(t5)
800014b6:	056f2c23          	sw	s6,88(t5)
800014ba:	057f2e23          	sw	s7,92(t5)
800014be:	078f2023          	sw	s8,96(t5)
800014c2:	079f2223          	sw	s9,100(t5)
800014c6:	07af2423          	sw	s10,104(t5)
800014ca:	07bf2623          	sw	s11,108(t5)
800014ce:	07cf2823          	sw	t3,112(t5)
800014d2:	07df2a23          	sw	t4,116(t5)
800014d6:	07ef2c23          	sw	t5,120(t5)
800014da:	07ff2e23          	sw	t6,124(t5)
800014de:	34202d73          	csrr	s10,mcause
800014e2:	01fd5d13          	srli	s10,s10,0x1f
800014e6:	000d0363          	beqz	s10,800014ec <mmode_intr_vector_27+0x96>
800014ea:	a1bd                	j	80001958 <mmode_intr_handler>
800014ec:	ffffff97          	auipc	t6,0xfffff
800014f0:	ebaf8f93          	addi	t6,t6,-326 # 800003a6 <test_done>
800014f4:	000f8067          	jr	t6

800014f8 <mmode_intr_vector_28>:
800014f8:	340f1f73          	csrrw	t5,mscratch,t5
800014fc:	000a8f33          	add	t5,s5,zero
80001500:	f84f0f13          	addi	t5,t5,-124
80001504:	001f2223          	sw	ra,4(t5)
80001508:	002f2423          	sw	sp,8(t5)
8000150c:	003f2623          	sw	gp,12(t5)
80001510:	004f2823          	sw	tp,16(t5)
80001514:	005f2a23          	sw	t0,20(t5)
80001518:	006f2c23          	sw	t1,24(t5)
8000151c:	007f2e23          	sw	t2,28(t5)
80001520:	028f2023          	sw	s0,32(t5)
80001524:	029f2223          	sw	s1,36(t5)
80001528:	02af2423          	sw	a0,40(t5)
8000152c:	02bf2623          	sw	a1,44(t5)
80001530:	02cf2823          	sw	a2,48(t5)
80001534:	02df2a23          	sw	a3,52(t5)
80001538:	02ef2c23          	sw	a4,56(t5)
8000153c:	02ff2e23          	sw	a5,60(t5)
80001540:	050f2023          	sw	a6,64(t5)
80001544:	051f2223          	sw	a7,68(t5)
80001548:	052f2423          	sw	s2,72(t5)
8000154c:	053f2623          	sw	s3,76(t5)
80001550:	054f2823          	sw	s4,80(t5)
80001554:	055f2a23          	sw	s5,84(t5)
80001558:	056f2c23          	sw	s6,88(t5)
8000155c:	057f2e23          	sw	s7,92(t5)
80001560:	078f2023          	sw	s8,96(t5)
80001564:	079f2223          	sw	s9,100(t5)
80001568:	07af2423          	sw	s10,104(t5)
8000156c:	07bf2623          	sw	s11,108(t5)
80001570:	07cf2823          	sw	t3,112(t5)
80001574:	07df2a23          	sw	t4,116(t5)
80001578:	07ef2c23          	sw	t5,120(t5)
8000157c:	07ff2e23          	sw	t6,124(t5)
80001580:	34202d73          	csrr	s10,mcause
80001584:	01fd5d13          	srli	s10,s10,0x1f
80001588:	000d0363          	beqz	s10,8000158e <mmode_intr_vector_28+0x96>
8000158c:	a6f1                	j	80001958 <mmode_intr_handler>
8000158e:	ffffff97          	auipc	t6,0xfffff
80001592:	e18f8f93          	addi	t6,t6,-488 # 800003a6 <test_done>
80001596:	000f8067          	jr	t6

8000159a <mmode_intr_vector_29>:
8000159a:	340f1f73          	csrrw	t5,mscratch,t5
8000159e:	000a8f33          	add	t5,s5,zero
800015a2:	f84f0f13          	addi	t5,t5,-124
800015a6:	001f2223          	sw	ra,4(t5)
800015aa:	002f2423          	sw	sp,8(t5)
800015ae:	003f2623          	sw	gp,12(t5)
800015b2:	004f2823          	sw	tp,16(t5)
800015b6:	005f2a23          	sw	t0,20(t5)
800015ba:	006f2c23          	sw	t1,24(t5)
800015be:	007f2e23          	sw	t2,28(t5)
800015c2:	028f2023          	sw	s0,32(t5)
800015c6:	029f2223          	sw	s1,36(t5)
800015ca:	02af2423          	sw	a0,40(t5)
800015ce:	02bf2623          	sw	a1,44(t5)
800015d2:	02cf2823          	sw	a2,48(t5)
800015d6:	02df2a23          	sw	a3,52(t5)
800015da:	02ef2c23          	sw	a4,56(t5)
800015de:	02ff2e23          	sw	a5,60(t5)
800015e2:	050f2023          	sw	a6,64(t5)
800015e6:	051f2223          	sw	a7,68(t5)
800015ea:	052f2423          	sw	s2,72(t5)
800015ee:	053f2623          	sw	s3,76(t5)
800015f2:	054f2823          	sw	s4,80(t5)
800015f6:	055f2a23          	sw	s5,84(t5)
800015fa:	056f2c23          	sw	s6,88(t5)
800015fe:	057f2e23          	sw	s7,92(t5)
80001602:	078f2023          	sw	s8,96(t5)
80001606:	079f2223          	sw	s9,100(t5)
8000160a:	07af2423          	sw	s10,104(t5)
8000160e:	07bf2623          	sw	s11,108(t5)
80001612:	07cf2823          	sw	t3,112(t5)
80001616:	07df2a23          	sw	t4,116(t5)
8000161a:	07ef2c23          	sw	t5,120(t5)
8000161e:	07ff2e23          	sw	t6,124(t5)
80001622:	34202d73          	csrr	s10,mcause
80001626:	01fd5d13          	srli	s10,s10,0x1f
8000162a:	000d0363          	beqz	s10,80001630 <mmode_intr_vector_29+0x96>
8000162e:	a62d                	j	80001958 <mmode_intr_handler>
80001630:	ffffff97          	auipc	t6,0xfffff
80001634:	d76f8f93          	addi	t6,t6,-650 # 800003a6 <test_done>
80001638:	000f8067          	jr	t6

8000163c <mmode_intr_vector_30>:
8000163c:	340f1f73          	csrrw	t5,mscratch,t5
80001640:	000a8f33          	add	t5,s5,zero
80001644:	f84f0f13          	addi	t5,t5,-124
80001648:	001f2223          	sw	ra,4(t5)
8000164c:	002f2423          	sw	sp,8(t5)
80001650:	003f2623          	sw	gp,12(t5)
80001654:	004f2823          	sw	tp,16(t5)
80001658:	005f2a23          	sw	t0,20(t5)
8000165c:	006f2c23          	sw	t1,24(t5)
80001660:	007f2e23          	sw	t2,28(t5)
80001664:	028f2023          	sw	s0,32(t5)
80001668:	029f2223          	sw	s1,36(t5)
8000166c:	02af2423          	sw	a0,40(t5)
80001670:	02bf2623          	sw	a1,44(t5)
80001674:	02cf2823          	sw	a2,48(t5)
80001678:	02df2a23          	sw	a3,52(t5)
8000167c:	02ef2c23          	sw	a4,56(t5)
80001680:	02ff2e23          	sw	a5,60(t5)
80001684:	050f2023          	sw	a6,64(t5)
80001688:	051f2223          	sw	a7,68(t5)
8000168c:	052f2423          	sw	s2,72(t5)
80001690:	053f2623          	sw	s3,76(t5)
80001694:	054f2823          	sw	s4,80(t5)
80001698:	055f2a23          	sw	s5,84(t5)
8000169c:	056f2c23          	sw	s6,88(t5)
800016a0:	057f2e23          	sw	s7,92(t5)
800016a4:	078f2023          	sw	s8,96(t5)
800016a8:	079f2223          	sw	s9,100(t5)
800016ac:	07af2423          	sw	s10,104(t5)
800016b0:	07bf2623          	sw	s11,108(t5)
800016b4:	07cf2823          	sw	t3,112(t5)
800016b8:	07df2a23          	sw	t4,116(t5)
800016bc:	07ef2c23          	sw	t5,120(t5)
800016c0:	07ff2e23          	sw	t6,124(t5)
800016c4:	34202d73          	csrr	s10,mcause
800016c8:	01fd5d13          	srli	s10,s10,0x1f
800016cc:	000d0363          	beqz	s10,800016d2 <mmode_intr_vector_30+0x96>
800016d0:	a461                	j	80001958 <mmode_intr_handler>
800016d2:	ffffff97          	auipc	t6,0xfffff
800016d6:	cd4f8f93          	addi	t6,t6,-812 # 800003a6 <test_done>
800016da:	000f8067          	jr	t6

800016de <mmode_intr_vector_31>:
800016de:	340f1f73          	csrrw	t5,mscratch,t5
800016e2:	000a8f33          	add	t5,s5,zero
800016e6:	f84f0f13          	addi	t5,t5,-124
800016ea:	001f2223          	sw	ra,4(t5)
800016ee:	002f2423          	sw	sp,8(t5)
800016f2:	003f2623          	sw	gp,12(t5)
800016f6:	004f2823          	sw	tp,16(t5)
800016fa:	005f2a23          	sw	t0,20(t5)
800016fe:	006f2c23          	sw	t1,24(t5)
80001702:	007f2e23          	sw	t2,28(t5)
80001706:	028f2023          	sw	s0,32(t5)
8000170a:	029f2223          	sw	s1,36(t5)
8000170e:	02af2423          	sw	a0,40(t5)
80001712:	02bf2623          	sw	a1,44(t5)
80001716:	02cf2823          	sw	a2,48(t5)
8000171a:	02df2a23          	sw	a3,52(t5)
8000171e:	02ef2c23          	sw	a4,56(t5)
80001722:	02ff2e23          	sw	a5,60(t5)
80001726:	050f2023          	sw	a6,64(t5)
8000172a:	051f2223          	sw	a7,68(t5)
8000172e:	052f2423          	sw	s2,72(t5)
80001732:	053f2623          	sw	s3,76(t5)
80001736:	054f2823          	sw	s4,80(t5)
8000173a:	055f2a23          	sw	s5,84(t5)
8000173e:	056f2c23          	sw	s6,88(t5)
80001742:	057f2e23          	sw	s7,92(t5)
80001746:	078f2023          	sw	s8,96(t5)
8000174a:	079f2223          	sw	s9,100(t5)
8000174e:	07af2423          	sw	s10,104(t5)
80001752:	07bf2623          	sw	s11,108(t5)
80001756:	07cf2823          	sw	t3,112(t5)
8000175a:	07df2a23          	sw	t4,116(t5)
8000175e:	07ef2c23          	sw	t5,120(t5)
80001762:	07ff2e23          	sw	t6,124(t5)
80001766:	34202d73          	csrr	s10,mcause
8000176a:	01fd5d13          	srli	s10,s10,0x1f
8000176e:	000d0363          	beqz	s10,80001774 <mmode_intr_vector_31+0x96>
80001772:	a2dd                	j	80001958 <mmode_intr_handler>
80001774:	ffffff97          	auipc	t6,0xfffff
80001778:	c32f8f93          	addi	t6,t6,-974 # 800003a6 <test_done>
8000177c:	000f8067          	jr	t6

80001780 <mmode_exception_handler>:
80001780:	340f1f73          	csrrw	t5,mscratch,t5
80001784:	000a8f33          	add	t5,s5,zero
80001788:	f84f0f13          	addi	t5,t5,-124
8000178c:	001f2223          	sw	ra,4(t5)
80001790:	002f2423          	sw	sp,8(t5)
80001794:	003f2623          	sw	gp,12(t5)
80001798:	004f2823          	sw	tp,16(t5)
8000179c:	005f2a23          	sw	t0,20(t5)
800017a0:	006f2c23          	sw	t1,24(t5)
800017a4:	007f2e23          	sw	t2,28(t5)
800017a8:	028f2023          	sw	s0,32(t5)
800017ac:	029f2223          	sw	s1,36(t5)
800017b0:	02af2423          	sw	a0,40(t5)
800017b4:	02bf2623          	sw	a1,44(t5)
800017b8:	02cf2823          	sw	a2,48(t5)
800017bc:	02df2a23          	sw	a3,52(t5)
800017c0:	02ef2c23          	sw	a4,56(t5)
800017c4:	02ff2e23          	sw	a5,60(t5)
800017c8:	050f2023          	sw	a6,64(t5)
800017cc:	051f2223          	sw	a7,68(t5)
800017d0:	052f2423          	sw	s2,72(t5)
800017d4:	053f2623          	sw	s3,76(t5)
800017d8:	054f2823          	sw	s4,80(t5)
800017dc:	055f2a23          	sw	s5,84(t5)
800017e0:	056f2c23          	sw	s6,88(t5)
800017e4:	057f2e23          	sw	s7,92(t5)
800017e8:	078f2023          	sw	s8,96(t5)
800017ec:	079f2223          	sw	s9,100(t5)
800017f0:	07af2423          	sw	s10,104(t5)
800017f4:	07bf2623          	sw	s11,108(t5)
800017f8:	07cf2823          	sw	t3,112(t5)
800017fc:	07df2a23          	sw	t4,116(t5)
80001800:	07ef2c23          	sw	t5,120(t5)
80001804:	07ff2e23          	sw	t6,124(t5)
80001808:	34102d73          	csrr	s10,mepc
8000180c:	34202d73          	csrr	s10,mcause
80001810:	492d                	li	s2,11
80001812:	012d0d63          	beq	s10,s2,8000182c <ecall_handler>
80001816:	4909                	li	s2,2
80001818:	0b2d0563          	beq	s10,s2,800018c2 <illegal_instr_handler>
8000181c:	34302973          	csrr	s2,mtval
80001820:	ffffff97          	auipc	t6,0xfffff
80001824:	b86f8f93          	addi	t6,t6,-1146 # 800003a6 <test_done>
80001828:	000f80e7          	jalr	t6

8000182c <ecall_handler>:
8000182c:	fffffd17          	auipc	s10,0xfffff
80001830:	854d0d13          	addi	s10,s10,-1964 # 80000080 <_start>
80001834:	000d2023          	sw	zero,0(s10)
80001838:	001d2223          	sw	ra,4(s10)
8000183c:	002d2423          	sw	sp,8(s10)
80001840:	003d2623          	sw	gp,12(s10)
80001844:	004d2823          	sw	tp,16(s10)
80001848:	005d2a23          	sw	t0,20(s10)
8000184c:	006d2c23          	sw	t1,24(s10)
80001850:	007d2e23          	sw	t2,28(s10)
80001854:	028d2023          	sw	s0,32(s10)
80001858:	029d2223          	sw	s1,36(s10)
8000185c:	02ad2423          	sw	a0,40(s10)
80001860:	02bd2623          	sw	a1,44(s10)
80001864:	02cd2823          	sw	a2,48(s10)
80001868:	02dd2a23          	sw	a3,52(s10)
8000186c:	02ed2c23          	sw	a4,56(s10)
80001870:	02fd2e23          	sw	a5,60(s10)
80001874:	050d2023          	sw	a6,64(s10)
80001878:	051d2223          	sw	a7,68(s10)
8000187c:	052d2423          	sw	s2,72(s10)
80001880:	053d2623          	sw	s3,76(s10)
80001884:	054d2823          	sw	s4,80(s10)
80001888:	055d2a23          	sw	s5,84(s10)
8000188c:	056d2c23          	sw	s6,88(s10)
80001890:	057d2e23          	sw	s7,92(s10)
80001894:	078d2023          	sw	s8,96(s10)
80001898:	079d2223          	sw	s9,100(s10)
8000189c:	07ad2423          	sw	s10,104(s10)
800018a0:	07bd2623          	sw	s11,108(s10)
800018a4:	07cd2823          	sw	t3,112(s10)
800018a8:	07dd2a23          	sw	t4,116(s10)
800018ac:	07ed2c23          	sw	t5,120(s10)
800018b0:	07fd2e23          	sw	t6,124(s10)
800018b4:	34102d73          	csrr	s10,mepc
800018b8:	0d11                	addi	s10,s10,4
800018ba:	341d1073          	csrw	mepc,s10
800018be:	30200073          	mret

800018c2 <illegal_instr_handler>:
800018c2:	34102d73          	csrr	s10,mepc
800018c6:	0d11                	addi	s10,s10,4
800018c8:	341d1073          	csrw	mepc,s10
800018cc:	004f2083          	lw	ra,4(t5)
800018d0:	008f2103          	lw	sp,8(t5)
800018d4:	00cf2183          	lw	gp,12(t5)
800018d8:	010f2203          	lw	tp,16(t5)
800018dc:	014f2283          	lw	t0,20(t5)
800018e0:	018f2303          	lw	t1,24(t5)
800018e4:	01cf2383          	lw	t2,28(t5)
800018e8:	020f2403          	lw	s0,32(t5)
800018ec:	024f2483          	lw	s1,36(t5)
800018f0:	028f2503          	lw	a0,40(t5)
800018f4:	02cf2583          	lw	a1,44(t5)
800018f8:	030f2603          	lw	a2,48(t5)
800018fc:	034f2683          	lw	a3,52(t5)
80001900:	038f2703          	lw	a4,56(t5)
80001904:	03cf2783          	lw	a5,60(t5)
80001908:	040f2803          	lw	a6,64(t5)
8000190c:	044f2883          	lw	a7,68(t5)
80001910:	048f2903          	lw	s2,72(t5)
80001914:	04cf2983          	lw	s3,76(t5)
80001918:	050f2a03          	lw	s4,80(t5)
8000191c:	054f2a83          	lw	s5,84(t5)
80001920:	058f2b03          	lw	s6,88(t5)
80001924:	05cf2b83          	lw	s7,92(t5)
80001928:	060f2c03          	lw	s8,96(t5)
8000192c:	064f2c83          	lw	s9,100(t5)
80001930:	068f2d03          	lw	s10,104(t5)
80001934:	06cf2d83          	lw	s11,108(t5)
80001938:	070f2e03          	lw	t3,112(t5)
8000193c:	074f2e83          	lw	t4,116(t5)
80001940:	078f2f03          	lw	t5,120(t5)
80001944:	07cf2f83          	lw	t6,124(t5)
80001948:	07cf0f13          	addi	t5,t5,124
8000194c:	000f0ab3          	add	s5,t5,zero
80001950:	340f1f73          	csrrw	t5,mscratch,t5
80001954:	30200073          	mret

80001958 <mmode_intr_handler>:
80001958:	30002d73          	csrr	s10,mstatus
8000195c:	30402d73          	csrr	s10,mie
80001960:	34402d73          	csrr	s10,mip
80001964:	344d3d73          	csrrc	s10,mip,s10
80001968:	004f2083          	lw	ra,4(t5)
8000196c:	008f2103          	lw	sp,8(t5)
80001970:	00cf2183          	lw	gp,12(t5)
80001974:	010f2203          	lw	tp,16(t5)
80001978:	014f2283          	lw	t0,20(t5)
8000197c:	018f2303          	lw	t1,24(t5)
80001980:	01cf2383          	lw	t2,28(t5)
80001984:	020f2403          	lw	s0,32(t5)
80001988:	024f2483          	lw	s1,36(t5)
8000198c:	028f2503          	lw	a0,40(t5)
80001990:	02cf2583          	lw	a1,44(t5)
80001994:	030f2603          	lw	a2,48(t5)
80001998:	034f2683          	lw	a3,52(t5)
8000199c:	038f2703          	lw	a4,56(t5)
800019a0:	03cf2783          	lw	a5,60(t5)
800019a4:	040f2803          	lw	a6,64(t5)
800019a8:	044f2883          	lw	a7,68(t5)
800019ac:	048f2903          	lw	s2,72(t5)
800019b0:	04cf2983          	lw	s3,76(t5)
800019b4:	050f2a03          	lw	s4,80(t5)
800019b8:	054f2a83          	lw	s5,84(t5)
800019bc:	058f2b03          	lw	s6,88(t5)
800019c0:	05cf2b83          	lw	s7,92(t5)
800019c4:	060f2c03          	lw	s8,96(t5)
800019c8:	064f2c83          	lw	s9,100(t5)
800019cc:	068f2d03          	lw	s10,104(t5)
800019d0:	06cf2d83          	lw	s11,108(t5)
800019d4:	070f2e03          	lw	t3,112(t5)
800019d8:	074f2e83          	lw	t4,116(t5)
800019dc:	078f2f03          	lw	t5,120(t5)
800019e0:	07cf2f83          	lw	t6,124(t5)
800019e4:	07cf0f13          	addi	t5,t5,124
800019e8:	000f0ab3          	add	s5,t5,zero
800019ec:	340f1f73          	csrrw	t5,mscratch,t5
800019f0:	30200073          	mret

800019f4 <kernel_instr_end>:
800019f4:	0001                	nop
800019f6:	0001                	nop

800019f8 <kernel_data_start>:
800019f8:	00000013          	nop
800019fc:	00000013          	nop
80001a00:	00000013          	nop
80001a04:	00000013          	nop
80001a08:	00000013          	nop
80001a0c:	00000013          	nop
80001a10:	00000013          	nop
80001a14:	00000013          	nop
80001a18:	00000013          	nop
80001a1c:	00000013          	nop
80001a20:	00000013          	nop
80001a24:	00000013          	nop
80001a28:	00000013          	nop
80001a2c:	00000013          	nop
80001a30:	00000013          	nop
80001a34:	00000013          	nop
80001a38:	00000013          	nop
80001a3c:	00000013          	nop
80001a40:	00000013          	nop
80001a44:	00000013          	nop
80001a48:	00000013          	nop
80001a4c:	00000013          	nop
80001a50:	00000013          	nop
80001a54:	00000013          	nop
80001a58:	00000013          	nop
80001a5c:	00000013          	nop
80001a60:	00000013          	nop
80001a64:	00000013          	nop
80001a68:	00000013          	nop
80001a6c:	00000013          	nop
80001a70:	00000013          	nop
