Time	Cycle	PC	Insn	Decoded instruction	Register and memory contents
           7000	         5	80000080	0000cf17	auipc	x30,0xc	 x30=0x8000c080
           8000	         6	80000084	c04f0f13	addi	x30,x30,-1020	 x30:0x8000c080 x30=0x8000bc84
           9000	         7	80000088	00000d97	auipc	x27,0x0	 x27=0x80000088
          10000	         8	8000008c	f78d8d93	addi	x27,x27,-136	 x27:0x80000088 x27=0x80000000
          11000	         9	80000090	001ded93	ori	x27,x27,1	 x27:0x80000000 x27=0x80000001
          12000	        10	80000094	305d9073	csrrw	x0,mtvec,x0	  x0:0x00000000  x0=0x00000000
          16000	        14	80000000	5a40106f	jal	x0,800015a4	  x0=0x00000000
          17000	        15	800015a4	340d1d73	csrrw	x26,mscratch,x26	 x26:0x00000000 x26=0x00000000
          18000	        16	800015a8	000f0d33	add	x26,x30,x0	 x30:0x8000bc84  x0:0x00000000 x26=0x8000bc84
          19000	        17	800015ac	f84d0d13	addi	x26,x26,-124	 x26:0x8000bc84 x26=0x8000bc08
          21000	        19	800015b0	001d2223	sw	x1,4(x26)	 x26:0x8000bc08  x1:0x00000000 PA:0x8000bc0c store:0x00000000 load:0x00000000
          23000	        21	800015b4	002d2423	sw	x2,8(x26)	 x26:0x8000bc08  x2:0x00000000 PA:0x8000bc10 store:0x00000000 load:0x00000000
          25000	        23	800015b8	003d2623	sw	x3,12(x26)	 x26:0x8000bc08  x3:0x00000000 PA:0x8000bc14 store:0x00000000 load:0x00000000
          27000	        25	800015bc	004d2823	sw	x4,16(x26)	 x26:0x8000bc08  x4:0x00000000 PA:0x8000bc18 store:0x00000000 load:0x00000000
          29000	        27	800015c0	005d2a23	sw	x5,20(x26)	 x26:0x8000bc08  x5:0x00000000 PA:0x8000bc1c store:0x00000000 load:0x00000000
          31000	        29	800015c4	006d2c23	sw	x6,24(x26)	 x26:0x8000bc08  x6:0x00000000 PA:0x8000bc20 store:0x00000000 load:0x00000000
          33000	        31	800015c8	007d2e23	sw	x7,28(x26)	 x26:0x8000bc08  x7:0x00000000 PA:0x8000bc24 store:0x00000000 load:0x00000000
          35000	        33	800015cc	028d2023	sw	x8,32(x26)	 x26:0x8000bc08  x8:0x00000000 PA:0x8000bc28 store:0x00000000 load:0x00000000
          37000	        35	800015d0	029d2223	sw	x9,36(x26)	 x26:0x8000bc08  x9:0x00000000 PA:0x8000bc2c store:0x00000000 load:0x00000000
          39000	        37	800015d4	02ad2423	sw	x10,40(x26)	 x26:0x8000bc08 x10:0x00000000 PA:0x8000bc30 store:0x00000000 load:0x00000000
          41000	        39	800015d8	02bd2623	sw	x11,44(x26)	 x26:0x8000bc08 x11:0x00000000 PA:0x8000bc34 store:0x00000000 load:0x00000000
          43000	        41	800015dc	02cd2823	sw	x12,48(x26)	 x26:0x8000bc08 x12:0x00000000 PA:0x8000bc38 store:0x00000000 load:0x00000000
          45000	        43	800015e0	02dd2a23	sw	x13,52(x26)	 x26:0x8000bc08 x13:0x00000000 PA:0x8000bc3c store:0x00000000 load:0x00000000
          47000	        45	800015e4	02ed2c23	sw	x14,56(x26)	 x26:0x8000bc08 x14:0x00000000 PA:0x8000bc40 store:0x00000000 load:0x00000000
          49000	        47	800015e8	02fd2e23	sw	x15,60(x26)	 x26:0x8000bc08 x15:0x00000000 PA:0x8000bc44 store:0x00000000 load:0x00000000
          51000	        49	800015ec	050d2023	sw	x16,64(x26)	 x26:0x8000bc08 x16:0x00000000 PA:0x8000bc48 store:0x00000000 load:0x00000000
          53000	        51	800015f0	051d2223	sw	x17,68(x26)	 x26:0x8000bc08 x17:0x00000000 PA:0x8000bc4c store:0x00000000 load:0x00000000
          55000	        53	800015f4	052d2423	sw	x18,72(x26)	 x26:0x8000bc08 x18:0x00000000 PA:0x8000bc50 store:0x00000000 load:0x00000000
          57000	        55	800015f8	053d2623	sw	x19,76(x26)	 x26:0x8000bc08 x19:0x00000000 PA:0x8000bc54 store:0x00000000 load:0x00000000
          59000	        57	800015fc	054d2823	sw	x20,80(x26)	 x26:0x8000bc08 x20:0x00000000 PA:0x8000bc58 store:0x00000000 load:0x00000000
          61000	        59	80001600	055d2a23	sw	x21,84(x26)	 x26:0x8000bc08 x21:0x00000000 PA:0x8000bc5c store:0x00000000 load:0x00000000
          63000	        61	80001604	056d2c23	sw	x22,88(x26)	 x26:0x8000bc08 x22:0x00000000 PA:0x8000bc60 store:0x00000000 load:0x00000000
          65000	        63	80001608	057d2e23	sw	x23,92(x26)	 x26:0x8000bc08 x23:0x00000000 PA:0x8000bc64 store:0x00000000 load:0x00000000
          67000	        65	8000160c	078d2023	sw	x24,96(x26)	 x26:0x8000bc08 x24:0x00000000 PA:0x8000bc68 store:0x00000000 load:0x00000000
          69000	        67	80001610	079d2223	sw	x25,100(x26)	 x26:0x8000bc08 x25:0x00000000 PA:0x8000bc6c store:0x00000000 load:0x00000000
          71000	        69	80001614	07ad2423	sw	x26,104(x26)	 x26:0x8000bc08 x26:0x8000bc08 PA:0x8000bc70 store:0x8000bc08 load:0x00000000
          73000	        71	80001618	07bd2623	sw	x27,108(x26)	 x26:0x8000bc08 x27:0x80000001 PA:0x8000bc74 store:0x80000001 load:0x00000000
          75000	        73	8000161c	07cd2823	sw	x28,112(x26)	 x26:0x8000bc08 x28:0x00000000 PA:0x8000bc78 store:0x00000000 load:0x00000000
          77000	        75	80001620	07dd2a23	sw	x29,116(x26)	 x26:0x8000bc08 x29:0x00000000 PA:0x8000bc7c store:0x00000000 load:0x00000000
          79000	        77	80001624	07ed2c23	sw	x30,120(x26)	 x26:0x8000bc08 x30:0x8000bc84 PA:0x8000bc80 store:0x8000bc84 load:0x00000000
          81000	        79	80001628	07fd2e23	sw	x31,124(x26)	 x26:0x8000bc08 x31:0x00000000 PA:0x8000bc84 store:0x00000000 load:0x00000000
          82000	        80	8000162c	34102df3	csrrs	x27,mepc,x0	  x0:0x00000000 x27=0x80000094
          83000	        81	80001630	34202df3	csrrs	x27,mcause,x0	  x0:0x00000000 x27=0x00000002
          84000	        82	80001634	442d	c.li	x8,11	  x8=0x0000000b
          85000	        83	80001636	008d8d63	beq	x27,x8,80001650	 x27:0x00000002  x8:0x0000000b
          86000	        84	8000163a	4409	c.li	x8,2	  x8=0x00000002
          88000	        86	8000163c	0a8d8563	beq	x27,x8,800016e6	 x27:0x00000002  x8:0x00000002
          91000	        89	800016e6	34102df3	csrrs	x27,mepc,x0	  x0:0x00000000 x27=0x80000094
          92000	        90	800016ea	0d91	c.addi	x27,4	 x27:0x80000094 x27=0x80000098
          93000	        91	800016ec	341d9073	csrrw	x0,mepc,x27	 x27:0x80000098  x0=0x00000000
          95000	        93	800016f0	004d2083	lw	x1,4(x26)	 x26:0x8000bc08  x1=0x00000000 PA:0x8000bc0c load:0x00000000
          97000	        95	800016f4	008d2103	lw	x2,8(x26)	 x26:0x8000bc08  x2=0x00000000 PA:0x8000bc10 load:0x00000000
          99000	        97	800016f8	00cd2183	lw	x3,12(x26)	 x26:0x8000bc08  x3=0x00000000 PA:0x8000bc14 load:0x00000000
         101000	        99	800016fc	010d2203	lw	x4,16(x26)	 x26:0x8000bc08  x4=0x00000000 PA:0x8000bc18 load:0x00000000
         103000	       101	80001700	014d2283	lw	x5,20(x26)	 x26:0x8000bc08  x5=0x00000000 PA:0x8000bc1c load:0x00000000
         105000	       103	80001704	018d2303	lw	x6,24(x26)	 x26:0x8000bc08  x6=0x00000000 PA:0x8000bc20 load:0x00000000
         107000	       105	80001708	01cd2383	lw	x7,28(x26)	 x26:0x8000bc08  x7=0x00000000 PA:0x8000bc24 load:0x00000000
         109000	       107	8000170c	020d2403	lw	x8,32(x26)	 x26:0x8000bc08  x8=0x00000000 PA:0x8000bc28 load:0x00000000
         111000	       109	80001710	024d2483	lw	x9,36(x26)	 x26:0x8000bc08  x9=0x00000000 PA:0x8000bc2c load:0x00000000
         113000	       111	80001714	028d2503	lw	x10,40(x26)	 x26:0x8000bc08 x10=0x00000000 PA:0x8000bc30 load:0x00000000
         115000	       113	80001718	02cd2583	lw	x11,44(x26)	 x26:0x8000bc08 x11=0x00000000 PA:0x8000bc34 load:0x00000000
         117000	       115	8000171c	030d2603	lw	x12,48(x26)	 x26:0x8000bc08 x12=0x00000000 PA:0x8000bc38 load:0x00000000
         119000	       117	80001720	034d2683	lw	x13,52(x26)	 x26:0x8000bc08 x13=0x00000000 PA:0x8000bc3c load:0x00000000
         121000	       119	80001724	038d2703	lw	x14,56(x26)	 x26:0x8000bc08 x14=0x00000000 PA:0x8000bc40 load:0x00000000
         123000	       121	80001728	03cd2783	lw	x15,60(x26)	 x26:0x8000bc08 x15=0x00000000 PA:0x8000bc44 load:0x00000000
         125000	       123	8000172c	040d2803	lw	x16,64(x26)	 x26:0x8000bc08 x16=0x00000000 PA:0x8000bc48 load:0x00000000
         127000	       125	80001730	044d2883	lw	x17,68(x26)	 x26:0x8000bc08 x17=0x00000000 PA:0x8000bc4c load:0x00000000
         129000	       127	80001734	048d2903	lw	x18,72(x26)	 x26:0x8000bc08 x18=0x00000000 PA:0x8000bc50 load:0x00000000
         131000	       129	80001738	04cd2983	lw	x19,76(x26)	 x26:0x8000bc08 x19=0x00000000 PA:0x8000bc54 load:0x00000000
         133000	       131	8000173c	050d2a03	lw	x20,80(x26)	 x26:0x8000bc08 x20=0x00000000 PA:0x8000bc58 load:0x00000000
         135000	       133	80001740	054d2a83	lw	x21,84(x26)	 x26:0x8000bc08 x21=0x00000000 PA:0x8000bc5c load:0x00000000
         137000	       135	80001744	058d2b03	lw	x22,88(x26)	 x26:0x8000bc08 x22=0x00000000 PA:0x8000bc60 load:0x00000000
         139000	       137	80001748	05cd2b83	lw	x23,92(x26)	 x26:0x8000bc08 x23=0x00000000 PA:0x8000bc64 load:0x00000000
         141000	       139	8000174c	060d2c03	lw	x24,96(x26)	 x26:0x8000bc08 x24=0x00000000 PA:0x8000bc68 load:0x00000000
         143000	       141	80001750	064d2c83	lw	x25,100(x26)	 x26:0x8000bc08 x25=0x00000000 PA:0x8000bc6c load:0x00000000
         145000	       143	80001754	068d2d03	lw	x26,104(x26)	 x26:0x8000bc08 x26=0x8000bc08 PA:0x8000bc70 load:0x8000bc08
         147000	       145	80001758	06cd2d83	lw	x27,108(x26)	 x26:0x8000bc08 x27=0x80000001 PA:0x8000bc74 load:0x80000001
         149000	       147	8000175c	070d2e03	lw	x28,112(x26)	 x26:0x8000bc08 x28=0x00000000 PA:0x8000bc78 load:0x00000000
         151000	       149	80001760	074d2e83	lw	x29,116(x26)	 x26:0x8000bc08 x29=0x00000000 PA:0x8000bc7c load:0x00000000
         153000	       151	80001764	078d2f03	lw	x30,120(x26)	 x26:0x8000bc08 x30=0x8000bc84 PA:0x8000bc80 load:0x8000bc84
         155000	       153	80001768	07cd2f83	lw	x31,124(x26)	 x26:0x8000bc08 x31=0x00000000 PA:0x8000bc84 load:0x00000000
         156000	       154	8000176c	07cd0d13	addi	x26,x26,124	 x26:0x8000bc08 x26=0x8000bc84
         157000	       155	80001770	000d0f33	add	x30,x26,x0	 x26:0x8000bc84  x0:0x00000000 x30=0x8000bc84
         158000	       156	80001774	340d1d73	csrrw	x26,mscratch,x26	 x26:0x8000bc84 x26=0x00000000
         159000	       157	80001778	30200073	mret	
         162000	       160	80000098	00000d97	auipc	x27,0x0	 x27=0x80000098
         163000	       161	8000009c	020d8d93	addi	x27,x27,32	 x27:0x80000098 x27=0x800000b8
         164000	       162	800000a0	341d9073	csrrw	x0,mepc,x0	  x0:0x00000000  x0=0x00000000
         168000	       166	80000000	5a40106f	jal	x0,800015a4	  x0=0x00000000
         169000	       167	800015a4	340d1d73	csrrw	x26,mscratch,x26	 x26:0x00000000 x26=0x8000bc84
         170000	       168	800015a8	000f0d33	add	x26,x30,x0	 x30:0x8000bc84  x0:0x00000000 x26=0x8000bc84
         171000	       169	800015ac	f84d0d13	addi	x26,x26,-124	 x26:0x8000bc84 x26=0x8000bc08
         173000	       171	800015b0	001d2223	sw	x1,4(x26)	 x26:0x8000bc08  x1:0x00000000 PA:0x8000bc0c store:0x00000000 load:0x00000000
         175000	       173	800015b4	002d2423	sw	x2,8(x26)	 x26:0x8000bc08  x2:0x00000000 PA:0x8000bc10 store:0x00000000 load:0x00000000
         177000	       175	800015b8	003d2623	sw	x3,12(x26)	 x26:0x8000bc08  x3:0x00000000 PA:0x8000bc14 store:0x00000000 load:0x00000000
         179000	       177	800015bc	004d2823	sw	x4,16(x26)	 x26:0x8000bc08  x4:0x00000000 PA:0x8000bc18 store:0x00000000 load:0x00000000
         181000	       179	800015c0	005d2a23	sw	x5,20(x26)	 x26:0x8000bc08  x5:0x00000000 PA:0x8000bc1c store:0x00000000 load:0x00000000
         183000	       181	800015c4	006d2c23	sw	x6,24(x26)	 x26:0x8000bc08  x6:0x00000000 PA:0x8000bc20 store:0x00000000 load:0x00000000
         185000	       183	800015c8	007d2e23	sw	x7,28(x26)	 x26:0x8000bc08  x7:0x00000000 PA:0x8000bc24 store:0x00000000 load:0x00000000
         187000	       185	800015cc	028d2023	sw	x8,32(x26)	 x26:0x8000bc08  x8:0x00000000 PA:0x8000bc28 store:0x00000000 load:0x00000000
         189000	       187	800015d0	029d2223	sw	x9,36(x26)	 x26:0x8000bc08  x9:0x00000000 PA:0x8000bc2c store:0x00000000 load:0x00000000
         191000	       189	800015d4	02ad2423	sw	x10,40(x26)	 x26:0x8000bc08 x10:0x00000000 PA:0x8000bc30 store:0x00000000 load:0x00000000
         193000	       191	800015d8	02bd2623	sw	x11,44(x26)	 x26:0x8000bc08 x11:0x00000000 PA:0x8000bc34 store:0x00000000 load:0x00000000
         195000	       193	800015dc	02cd2823	sw	x12,48(x26)	 x26:0x8000bc08 x12:0x00000000 PA:0x8000bc38 store:0x00000000 load:0x00000000
         197000	       195	800015e0	02dd2a23	sw	x13,52(x26)	 x26:0x8000bc08 x13:0x00000000 PA:0x8000bc3c store:0x00000000 load:0x00000000
         199000	       197	800015e4	02ed2c23	sw	x14,56(x26)	 x26:0x8000bc08 x14:0x00000000 PA:0x8000bc40 store:0x00000000 load:0x00000000
         201000	       199	800015e8	02fd2e23	sw	x15,60(x26)	 x26:0x8000bc08 x15:0x00000000 PA:0x8000bc44 store:0x00000000 load:0x00000000
         203000	       201	800015ec	050d2023	sw	x16,64(x26)	 x26:0x8000bc08 x16:0x00000000 PA:0x8000bc48 store:0x00000000 load:0x00000000
         205000	       203	800015f0	051d2223	sw	x17,68(x26)	 x26:0x8000bc08 x17:0x00000000 PA:0x8000bc4c store:0x00000000 load:0x00000000
         207000	       205	800015f4	052d2423	sw	x18,72(x26)	 x26:0x8000bc08 x18:0x00000000 PA:0x8000bc50 store:0x00000000 load:0x00000000
         209000	       207	800015f8	053d2623	sw	x19,76(x26)	 x26:0x8000bc08 x19:0x00000000 PA:0x8000bc54 store:0x00000000 load:0x00000000
         211000	       209	800015fc	054d2823	sw	x20,80(x26)	 x26:0x8000bc08 x20:0x00000000 PA:0x8000bc58 store:0x00000000 load:0x00000000
         213000	       211	80001600	055d2a23	sw	x21,84(x26)	 x26:0x8000bc08 x21:0x00000000 PA:0x8000bc5c store:0x00000000 load:0x00000000
         215000	       213	80001604	056d2c23	sw	x22,88(x26)	 x26:0x8000bc08 x22:0x00000000 PA:0x8000bc60 store:0x00000000 load:0x00000000
         217000	       215	80001608	057d2e23	sw	x23,92(x26)	 x26:0x8000bc08 x23:0x00000000 PA:0x8000bc64 store:0x00000000 load:0x00000000
         219000	       217	8000160c	078d2023	sw	x24,96(x26)	 x26:0x8000bc08 x24:0x00000000 PA:0x8000bc68 store:0x00000000 load:0x00000000
         221000	       219	80001610	079d2223	sw	x25,100(x26)	 x26:0x8000bc08 x25:0x00000000 PA:0x8000bc6c store:0x00000000 load:0x00000000
         223000	       221	80001614	07ad2423	sw	x26,104(x26)	 x26:0x8000bc08 x26:0x8000bc08 PA:0x8000bc70 store:0x8000bc08 load:0x00000000
         225000	       223	80001618	07bd2623	sw	x27,108(x26)	 x26:0x8000bc08 x27:0x800000b8 PA:0x8000bc74 store:0x800000b8 load:0x00000000
         227000	       225	8000161c	07cd2823	sw	x28,112(x26)	 x26:0x8000bc08 x28:0x00000000 PA:0x8000bc78 store:0x00000000 load:0x00000000
         229000	       227	80001620	07dd2a23	sw	x29,116(x26)	 x26:0x8000bc08 x29:0x00000000 PA:0x8000bc7c store:0x00000000 load:0x00000000
         231000	       229	80001624	07ed2c23	sw	x30,120(x26)	 x26:0x8000bc08 x30:0x8000bc84 PA:0x8000bc80 store:0x8000bc84 load:0x00000000
         233000	       231	80001628	07fd2e23	sw	x31,124(x26)	 x26:0x8000bc08 x31:0x00000000 PA:0x8000bc84 store:0x00000000 load:0x00000000
         234000	       232	8000162c	34102df3	csrrs	x27,mepc,x0	  x0:0x00000000 x27=0x800000a0
         235000	       233	80001630	34202df3	csrrs	x27,mcause,x0	  x0:0x00000000 x27=0x00000002
         236000	       234	80001634	442d	c.li	x8,11	  x8=0x0000000b
         237000	       235	80001636	008d8d63	beq	x27,x8,80001650	 x27:0x00000002  x8:0x0000000b
         238000	       236	8000163a	4409	c.li	x8,2	  x8=0x00000002
         240000	       238	8000163c	0a8d8563	beq	x27,x8,800016e6	 x27:0x00000002  x8:0x00000002
         243000	       241	800016e6	34102df3	csrrs	x27,mepc,x0	  x0:0x00000000 x27=0x800000a0
         244000	       242	800016ea	0d91	c.addi	x27,4	 x27:0x800000a0 x27=0x800000a4
         245000	       243	800016ec	341d9073	csrrw	x0,mepc,x27	 x27:0x800000a4  x0=0x00000000
         247000	       245	800016f0	004d2083	lw	x1,4(x26)	 x26:0x8000bc08  x1=0x00000000 PA:0x8000bc0c load:0x00000000
         249000	       247	800016f4	008d2103	lw	x2,8(x26)	 x26:0x8000bc08  x2=0x00000000 PA:0x8000bc10 load:0x00000000
         251000	       249	800016f8	00cd2183	lw	x3,12(x26)	 x26:0x8000bc08  x3=0x00000000 PA:0x8000bc14 load:0x00000000
         253000	       251	800016fc	010d2203	lw	x4,16(x26)	 x26:0x8000bc08  x4=0x00000000 PA:0x8000bc18 load:0x00000000
         255000	       253	80001700	014d2283	lw	x5,20(x26)	 x26:0x8000bc08  x5=0x00000000 PA:0x8000bc1c load:0x00000000
         257000	       255	80001704	018d2303	lw	x6,24(x26)	 x26:0x8000bc08  x6=0x00000000 PA:0x8000bc20 load:0x00000000
         259000	       257	80001708	01cd2383	lw	x7,28(x26)	 x26:0x8000bc08  x7=0x00000000 PA:0x8000bc24 load:0x00000000
         261000	       259	8000170c	020d2403	lw	x8,32(x26)	 x26:0x8000bc08  x8=0x00000000 PA:0x8000bc28 load:0x00000000
         263000	       261	80001710	024d2483	lw	x9,36(x26)	 x26:0x8000bc08  x9=0x00000000 PA:0x8000bc2c load:0x00000000
         265000	       263	80001714	028d2503	lw	x10,40(x26)	 x26:0x8000bc08 x10=0x00000000 PA:0x8000bc30 load:0x00000000
         267000	       265	80001718	02cd2583	lw	x11,44(x26)	 x26:0x8000bc08 x11=0x00000000 PA:0x8000bc34 load:0x00000000
         269000	       267	8000171c	030d2603	lw	x12,48(x26)	 x26:0x8000bc08 x12=0x00000000 PA:0x8000bc38 load:0x00000000
         271000	       269	80001720	034d2683	lw	x13,52(x26)	 x26:0x8000bc08 x13=0x00000000 PA:0x8000bc3c load:0x00000000
         273000	       271	80001724	038d2703	lw	x14,56(x26)	 x26:0x8000bc08 x14=0x00000000 PA:0x8000bc40 load:0x00000000
         275000	       273	80001728	03cd2783	lw	x15,60(x26)	 x26:0x8000bc08 x15=0x00000000 PA:0x8000bc44 load:0x00000000
         277000	       275	8000172c	040d2803	lw	x16,64(x26)	 x26:0x8000bc08 x16=0x00000000 PA:0x8000bc48 load:0x00000000
         279000	       277	80001730	044d2883	lw	x17,68(x26)	 x26:0x8000bc08 x17=0x00000000 PA:0x8000bc4c load:0x00000000
         281000	       279	80001734	048d2903	lw	x18,72(x26)	 x26:0x8000bc08 x18=0x00000000 PA:0x8000bc50 load:0x00000000
         283000	       281	80001738	04cd2983	lw	x19,76(x26)	 x26:0x8000bc08 x19=0x00000000 PA:0x8000bc54 load:0x00000000
         285000	       283	8000173c	050d2a03	lw	x20,80(x26)	 x26:0x8000bc08 x20=0x00000000 PA:0x8000bc58 load:0x00000000
         287000	       285	80001740	054d2a83	lw	x21,84(x26)	 x26:0x8000bc08 x21=0x00000000 PA:0x8000bc5c load:0x00000000
         289000	       287	80001744	058d2b03	lw	x22,88(x26)	 x26:0x8000bc08 x22=0x00000000 PA:0x8000bc60 load:0x00000000
         291000	       289	80001748	05cd2b83	lw	x23,92(x26)	 x26:0x8000bc08 x23=0x00000000 PA:0x8000bc64 load:0x00000000
         293000	       291	8000174c	060d2c03	lw	x24,96(x26)	 x26:0x8000bc08 x24=0x00000000 PA:0x8000bc68 load:0x00000000
         295000	       293	80001750	064d2c83	lw	x25,100(x26)	 x26:0x8000bc08 x25=0x00000000 PA:0x8000bc6c load:0x00000000
         297000	       295	80001754	068d2d03	lw	x26,104(x26)	 x26:0x8000bc08 x26=0x8000bc08 PA:0x8000bc70 load:0x8000bc08
         299000	       297	80001758	06cd2d83	lw	x27,108(x26)	 x26:0x8000bc08 x27=0x800000b8 PA:0x8000bc74 load:0x800000b8
         301000	       299	8000175c	070d2e03	lw	x28,112(x26)	 x26:0x8000bc08 x28=0x00000000 PA:0x8000bc78 load:0x00000000
         303000	       301	80001760	074d2e83	lw	x29,116(x26)	 x26:0x8000bc08 x29=0x00000000 PA:0x8000bc7c load:0x00000000
         305000	       303	80001764	078d2f03	lw	x30,120(x26)	 x26:0x8000bc08 x30=0x8000bc84 PA:0x8000bc80 load:0x8000bc84
         307000	       305	80001768	07cd2f83	lw	x31,124(x26)	 x26:0x8000bc08 x31=0x00000000 PA:0x8000bc84 load:0x00000000
         308000	       306	8000176c	07cd0d13	addi	x26,x26,124	 x26:0x8000bc08 x26=0x8000bc84
         309000	       307	80001770	000d0f33	add	x30,x26,x0	 x26:0x8000bc84  x0:0x00000000 x30=0x8000bc84
         310000	       308	80001774	340d1d73	csrrw	x26,mscratch,x26	 x26:0x8000bc84 x26=0x00000000
         311000	       309	80001778	30200073	mret	
         314000	       312	800000a4	6d89	c.lui	x27,0x2	 x27=0x00002000
         315000	       313	800000a6	e00d8d93	addi	x27,x27,-512	 x27:0x00002000 x27=0x00001e00
         316000	       314	800000aa	300d9073	csrrw	x0,mstatus,x0	  x0:0x00000000  x0=0x00000000
         320000	       318	80000000	5a40106f	jal	x0,800015a4	  x0=0x00000000
         321000	       319	800015a4	340d1d73	csrrw	x26,mscratch,x26	 x26:0x00000000 x26=0x8000bc84
         322000	       320	800015a8	000f0d33	add	x26,x30,x0	 x30:0x8000bc84  x0:0x00000000 x26=0x8000bc84
         323000	       321	800015ac	f84d0d13	addi	x26,x26,-124	 x26:0x8000bc84 x26=0x8000bc08
         325000	       323	800015b0	001d2223	sw	x1,4(x26)	 x26:0x8000bc08  x1:0x00000000 PA:0x8000bc0c store:0x00000000 load:0x00000000
         327000	       325	800015b4	002d2423	sw	x2,8(x26)	 x26:0x8000bc08  x2:0x00000000 PA:0x8000bc10 store:0x00000000 load:0x00000000
         329000	       327	800015b8	003d2623	sw	x3,12(x26)	 x26:0x8000bc08  x3:0x00000000 PA:0x8000bc14 store:0x00000000 load:0x00000000
         331000	       329	800015bc	004d2823	sw	x4,16(x26)	 x26:0x8000bc08  x4:0x00000000 PA:0x8000bc18 store:0x00000000 load:0x00000000
         333000	       331	800015c0	005d2a23	sw	x5,20(x26)	 x26:0x8000bc08  x5:0x00000000 PA:0x8000bc1c store:0x00000000 load:0x00000000
         335000	       333	800015c4	006d2c23	sw	x6,24(x26)	 x26:0x8000bc08  x6:0x00000000 PA:0x8000bc20 store:0x00000000 load:0x00000000
         337000	       335	800015c8	007d2e23	sw	x7,28(x26)	 x26:0x8000bc08  x7:0x00000000 PA:0x8000bc24 store:0x00000000 load:0x00000000
         339000	       337	800015cc	028d2023	sw	x8,32(x26)	 x26:0x8000bc08  x8:0x00000000 PA:0x8000bc28 store:0x00000000 load:0x00000000
         341000	       339	800015d0	029d2223	sw	x9,36(x26)	 x26:0x8000bc08  x9:0x00000000 PA:0x8000bc2c store:0x00000000 load:0x00000000
         343000	       341	800015d4	02ad2423	sw	x10,40(x26)	 x26:0x8000bc08 x10:0x00000000 PA:0x8000bc30 store:0x00000000 load:0x00000000
         345000	       343	800015d8	02bd2623	sw	x11,44(x26)	 x26:0x8000bc08 x11:0x00000000 PA:0x8000bc34 store:0x00000000 load:0x00000000
         347000	       345	800015dc	02cd2823	sw	x12,48(x26)	 x26:0x8000bc08 x12:0x00000000 PA:0x8000bc38 store:0x00000000 load:0x00000000
         349000	       347	800015e0	02dd2a23	sw	x13,52(x26)	 x26:0x8000bc08 x13:0x00000000 PA:0x8000bc3c store:0x00000000 load:0x00000000
         351000	       349	800015e4	02ed2c23	sw	x14,56(x26)	 x26:0x8000bc08 x14:0x00000000 PA:0x8000bc40 store:0x00000000 load:0x00000000
         353000	       351	800015e8	02fd2e23	sw	x15,60(x26)	 x26:0x8000bc08 x15:0x00000000 PA:0x8000bc44 store:0x00000000 load:0x00000000
         355000	       353	800015ec	050d2023	sw	x16,64(x26)	 x26:0x8000bc08 x16:0x00000000 PA:0x8000bc48 store:0x00000000 load:0x00000000
         357000	       355	800015f0	051d2223	sw	x17,68(x26)	 x26:0x8000bc08 x17:0x00000000 PA:0x8000bc4c store:0x00000000 load:0x00000000
         359000	       357	800015f4	052d2423	sw	x18,72(x26)	 x26:0x8000bc08 x18:0x00000000 PA:0x8000bc50 store:0x00000000 load:0x00000000
         361000	       359	800015f8	053d2623	sw	x19,76(x26)	 x26:0x8000bc08 x19:0x00000000 PA:0x8000bc54 store:0x00000000 load:0x00000000
         363000	       361	800015fc	054d2823	sw	x20,80(x26)	 x26:0x8000bc08 x20:0x00000000 PA:0x8000bc58 store:0x00000000 load:0x00000000
         365000	       363	80001600	055d2a23	sw	x21,84(x26)	 x26:0x8000bc08 x21:0x00000000 PA:0x8000bc5c store:0x00000000 load:0x00000000
         367000	       365	80001604	056d2c23	sw	x22,88(x26)	 x26:0x8000bc08 x22:0x00000000 PA:0x8000bc60 store:0x00000000 load:0x00000000
         369000	       367	80001608	057d2e23	sw	x23,92(x26)	 x26:0x8000bc08 x23:0x00000000 PA:0x8000bc64 store:0x00000000 load:0x00000000
         371000	       369	8000160c	078d2023	sw	x24,96(x26)	 x26:0x8000bc08 x24:0x00000000 PA:0x8000bc68 store:0x00000000 load:0x00000000
         373000	       371	80001610	079d2223	sw	x25,100(x26)	 x26:0x8000bc08 x25:0x00000000 PA:0x8000bc6c store:0x00000000 load:0x00000000
         375000	       373	80001614	07ad2423	sw	x26,104(x26)	 x26:0x8000bc08 x26:0x8000bc08 PA:0x8000bc70 store:0x8000bc08 load:0x00000000
         377000	       375	80001618	07bd2623	sw	x27,108(x26)	 x26:0x8000bc08 x27:0x00001e00 PA:0x8000bc74 store:0x00001e00 load:0x00000000
         379000	       377	8000161c	07cd2823	sw	x28,112(x26)	 x26:0x8000bc08 x28:0x00000000 PA:0x8000bc78 store:0x00000000 load:0x00000000
         381000	       379	80001620	07dd2a23	sw	x29,116(x26)	 x26:0x8000bc08 x29:0x00000000 PA:0x8000bc7c store:0x00000000 load:0x00000000
         383000	       381	80001624	07ed2c23	sw	x30,120(x26)	 x26:0x8000bc08 x30:0x8000bc84 PA:0x8000bc80 store:0x8000bc84 load:0x00000000
         385000	       383	80001628	07fd2e23	sw	x31,124(x26)	 x26:0x8000bc08 x31:0x00000000 PA:0x8000bc84 store:0x00000000 load:0x00000000
         386000	       384	8000162c	34102df3	csrrs	x27,mepc,x0	  x0:0x00000000 x27=0x800000aa
         387000	       385	80001630	34202df3	csrrs	x27,mcause,x0	  x0:0x00000000 x27=0x00000002
         388000	       386	80001634	442d	c.li	x8,11	  x8=0x0000000b
         389000	       387	80001636	008d8d63	beq	x27,x8,80001650	 x27:0x00000002  x8:0x0000000b
         390000	       388	8000163a	4409	c.li	x8,2	  x8=0x00000002
         392000	       390	8000163c	0a8d8563	beq	x27,x8,800016e6	 x27:0x00000002  x8:0x00000002
         395000	       393	800016e6	34102df3	csrrs	x27,mepc,x0	  x0:0x00000000 x27=0x800000aa
         396000	       394	800016ea	0d91	c.addi	x27,4	 x27:0x800000aa x27=0x800000ae
         397000	       395	800016ec	341d9073	csrrw	x0,mepc,x27	 x27:0x800000ae  x0=0x00000000
         399000	       397	800016f0	004d2083	lw	x1,4(x26)	 x26:0x8000bc08  x1=0x00000000 PA:0x8000bc0c load:0x00000000
         401000	       399	800016f4	008d2103	lw	x2,8(x26)	 x26:0x8000bc08  x2=0x00000000 PA:0x8000bc10 load:0x00000000
         403000	       401	800016f8	00cd2183	lw	x3,12(x26)	 x26:0x8000bc08  x3=0x00000000 PA:0x8000bc14 load:0x00000000
         405000	       403	800016fc	010d2203	lw	x4,16(x26)	 x26:0x8000bc08  x4=0x00000000 PA:0x8000bc18 load:0x00000000
         407000	       405	80001700	014d2283	lw	x5,20(x26)	 x26:0x8000bc08  x5=0x00000000 PA:0x8000bc1c load:0x00000000
         409000	       407	80001704	018d2303	lw	x6,24(x26)	 x26:0x8000bc08  x6=0x00000000 PA:0x8000bc20 load:0x00000000
         411000	       409	80001708	01cd2383	lw	x7,28(x26)	 x26:0x8000bc08  x7=0x00000000 PA:0x8000bc24 load:0x00000000
         413000	       411	8000170c	020d2403	lw	x8,32(x26)	 x26:0x8000bc08  x8=0x00000000 PA:0x8000bc28 load:0x00000000
         415000	       413	80001710	024d2483	lw	x9,36(x26)	 x26:0x8000bc08  x9=0x00000000 PA:0x8000bc2c load:0x00000000
         417000	       415	80001714	028d2503	lw	x10,40(x26)	 x26:0x8000bc08 x10=0x00000000 PA:0x8000bc30 load:0x00000000
         419000	       417	80001718	02cd2583	lw	x11,44(x26)	 x26:0x8000bc08 x11=0x00000000 PA:0x8000bc34 load:0x00000000
         421000	       419	8000171c	030d2603	lw	x12,48(x26)	 x26:0x8000bc08 x12=0x00000000 PA:0x8000bc38 load:0x00000000
         423000	       421	80001720	034d2683	lw	x13,52(x26)	 x26:0x8000bc08 x13=0x00000000 PA:0x8000bc3c load:0x00000000
         425000	       423	80001724	038d2703	lw	x14,56(x26)	 x26:0x8000bc08 x14=0x00000000 PA:0x8000bc40 load:0x00000000
         427000	       425	80001728	03cd2783	lw	x15,60(x26)	 x26:0x8000bc08 x15=0x00000000 PA:0x8000bc44 load:0x00000000
         429000	       427	8000172c	040d2803	lw	x16,64(x26)	 x26:0x8000bc08 x16=0x00000000 PA:0x8000bc48 load:0x00000000
         431000	       429	80001730	044d2883	lw	x17,68(x26)	 x26:0x8000bc08 x17=0x00000000 PA:0x8000bc4c load:0x00000000
         433000	       431	80001734	048d2903	lw	x18,72(x26)	 x26:0x8000bc08 x18=0x00000000 PA:0x8000bc50 load:0x00000000
         435000	       433	80001738	04cd2983	lw	x19,76(x26)	 x26:0x8000bc08 x19=0x00000000 PA:0x8000bc54 load:0x00000000
         437000	       435	8000173c	050d2a03	lw	x20,80(x26)	 x26:0x8000bc08 x20=0x00000000 PA:0x8000bc58 load:0x00000000
         439000	       437	80001740	054d2a83	lw	x21,84(x26)	 x26:0x8000bc08 x21=0x00000000 PA:0x8000bc5c load:0x00000000
         441000	       439	80001744	058d2b03	lw	x22,88(x26)	 x26:0x8000bc08 x22=0x00000000 PA:0x8000bc60 load:0x00000000
         443000	       441	80001748	05cd2b83	lw	x23,92(x26)	 x26:0x8000bc08 x23=0x00000000 PA:0x8000bc64 load:0x00000000
         445000	       443	8000174c	060d2c03	lw	x24,96(x26)	 x26:0x8000bc08 x24=0x00000000 PA:0x8000bc68 load:0x00000000
         447000	       445	80001750	064d2c83	lw	x25,100(x26)	 x26:0x8000bc08 x25=0x00000000 PA:0x8000bc6c load:0x00000000
         449000	       447	80001754	068d2d03	lw	x26,104(x26)	 x26:0x8000bc08 x26=0x8000bc08 PA:0x8000bc70 load:0x8000bc08
         451000	       449	80001758	06cd2d83	lw	x27,108(x26)	 x26:0x8000bc08 x27=0x00001e00 PA:0x8000bc74 load:0x00001e00
         453000	       451	8000175c	070d2e03	lw	x28,112(x26)	 x26:0x8000bc08 x28=0x00000000 PA:0x8000bc78 load:0x00000000
         455000	       453	80001760	074d2e83	lw	x29,116(x26)	 x26:0x8000bc08 x29=0x00000000 PA:0x8000bc7c load:0x00000000
         457000	       455	80001764	078d2f03	lw	x30,120(x26)	 x26:0x8000bc08 x30=0x8000bc84 PA:0x8000bc80 load:0x8000bc84
         459000	       457	80001768	07cd2f83	lw	x31,124(x26)	 x26:0x8000bc08 x31=0x00000000 PA:0x8000bc84 load:0x00000000
         460000	       458	8000176c	07cd0d13	addi	x26,x26,124	 x26:0x8000bc08 x26=0x8000bc84
         461000	       459	80001770	000d0f33	add	x30,x26,x0	 x26:0x8000bc84  x0:0x00000000 x30=0x8000bc84
         462000	       460	80001774	340d1d73	csrrw	x26,mscratch,x26	 x26:0x8000bc84 x26=0x00000000
         463000	       461	80001778	30200073	mret	
         466000	       464	800000ae	4d81	c.li	x27,0	 x27=0x00000000
         467000	       465	800000b0	304d9073	csrrw	x0,mie,x0	  x0:0x00000000  x0=0x00000000
         471000	       469	80000000	5a40106f	jal	x0,800015a4	  x0=0x00000000
         472000	       470	800015a4	340d1d73	csrrw	x26,mscratch,x26	 x26:0x00000000 x26=0x8000bc84
         473000	       471	800015a8	000f0d33	add	x26,x30,x0	 x30:0x8000bc84  x0:0x00000000 x26=0x8000bc84
         474000	       472	800015ac	f84d0d13	addi	x26,x26,-124	 x26:0x8000bc84 x26=0x8000bc08
         476000	       474	800015b0	001d2223	sw	x1,4(x26)	 x26:0x8000bc08  x1:0x00000000 PA:0x8000bc0c store:0x00000000 load:0x00000000
         478000	       476	800015b4	002d2423	sw	x2,8(x26)	 x26:0x8000bc08  x2:0x00000000 PA:0x8000bc10 store:0x00000000 load:0x00000000
         480000	       478	800015b8	003d2623	sw	x3,12(x26)	 x26:0x8000bc08  x3:0x00000000 PA:0x8000bc14 store:0x00000000 load:0x00000000
         482000	       480	800015bc	004d2823	sw	x4,16(x26)	 x26:0x8000bc08  x4:0x00000000 PA:0x8000bc18 store:0x00000000 load:0x00000000
         484000	       482	800015c0	005d2a23	sw	x5,20(x26)	 x26:0x8000bc08  x5:0x00000000 PA:0x8000bc1c store:0x00000000 load:0x00000000
         486000	       484	800015c4	006d2c23	sw	x6,24(x26)	 x26:0x8000bc08  x6:0x00000000 PA:0x8000bc20 store:0x00000000 load:0x00000000
         488000	       486	800015c8	007d2e23	sw	x7,28(x26)	 x26:0x8000bc08  x7:0x00000000 PA:0x8000bc24 store:0x00000000 load:0x00000000
         490000	       488	800015cc	028d2023	sw	x8,32(x26)	 x26:0x8000bc08  x8:0x00000000 PA:0x8000bc28 store:0x00000000 load:0x00000000
         492000	       490	800015d0	029d2223	sw	x9,36(x26)	 x26:0x8000bc08  x9:0x00000000 PA:0x8000bc2c store:0x00000000 load:0x00000000
         494000	       492	800015d4	02ad2423	sw	x10,40(x26)	 x26:0x8000bc08 x10:0x00000000 PA:0x8000bc30 store:0x00000000 load:0x00000000
         496000	       494	800015d8	02bd2623	sw	x11,44(x26)	 x26:0x8000bc08 x11:0x00000000 PA:0x8000bc34 store:0x00000000 load:0x00000000
         498000	       496	800015dc	02cd2823	sw	x12,48(x26)	 x26:0x8000bc08 x12:0x00000000 PA:0x8000bc38 store:0x00000000 load:0x00000000
         500000	       498	800015e0	02dd2a23	sw	x13,52(x26)	 x26:0x8000bc08 x13:0x00000000 PA:0x8000bc3c store:0x00000000 load:0x00000000
         502000	       500	800015e4	02ed2c23	sw	x14,56(x26)	 x26:0x8000bc08 x14:0x00000000 PA:0x8000bc40 store:0x00000000 load:0x00000000
         504000	       502	800015e8	02fd2e23	sw	x15,60(x26)	 x26:0x8000bc08 x15:0x00000000 PA:0x8000bc44 store:0x00000000 load:0x00000000
         506000	       504	800015ec	050d2023	sw	x16,64(x26)	 x26:0x8000bc08 x16:0x00000000 PA:0x8000bc48 store:0x00000000 load:0x00000000
         508000	       506	800015f0	051d2223	sw	x17,68(x26)	 x26:0x8000bc08 x17:0x00000000 PA:0x8000bc4c store:0x00000000 load:0x00000000
         510000	       508	800015f4	052d2423	sw	x18,72(x26)	 x26:0x8000bc08 x18:0x00000000 PA:0x8000bc50 store:0x00000000 load:0x00000000
         512000	       510	800015f8	053d2623	sw	x19,76(x26)	 x26:0x8000bc08 x19:0x00000000 PA:0x8000bc54 store:0x00000000 load:0x00000000
         514000	       512	800015fc	054d2823	sw	x20,80(x26)	 x26:0x8000bc08 x20:0x00000000 PA:0x8000bc58 store:0x00000000 load:0x00000000
         516000	       514	80001600	055d2a23	sw	x21,84(x26)	 x26:0x8000bc08 x21:0x00000000 PA:0x8000bc5c store:0x00000000 load:0x00000000
         518000	       516	80001604	056d2c23	sw	x22,88(x26)	 x26:0x8000bc08 x22:0x00000000 PA:0x8000bc60 store:0x00000000 load:0x00000000
         520000	       518	80001608	057d2e23	sw	x23,92(x26)	 x26:0x8000bc08 x23:0x00000000 PA:0x8000bc64 store:0x00000000 load:0x00000000
         522000	       520	8000160c	078d2023	sw	x24,96(x26)	 x26:0x8000bc08 x24:0x00000000 PA:0x8000bc68 store:0x00000000 load:0x00000000
         524000	       522	80001610	079d2223	sw	x25,100(x26)	 x26:0x8000bc08 x25:0x00000000 PA:0x8000bc6c store:0x00000000 load:0x00000000
         526000	       524	80001614	07ad2423	sw	x26,104(x26)	 x26:0x8000bc08 x26:0x8000bc08 PA:0x8000bc70 store:0x8000bc08 load:0x00000000
         528000	       526	80001618	07bd2623	sw	x27,108(x26)	 x26:0x8000bc08 x27:0x00000000 PA:0x8000bc74 store:0x00000000 load:0x00000000
         530000	       528	8000161c	07cd2823	sw	x28,112(x26)	 x26:0x8000bc08 x28:0x00000000 PA:0x8000bc78 store:0x00000000 load:0x00000000
         532000	       530	80001620	07dd2a23	sw	x29,116(x26)	 x26:0x8000bc08 x29:0x00000000 PA:0x8000bc7c store:0x00000000 load:0x00000000
         534000	       532	80001624	07ed2c23	sw	x30,120(x26)	 x26:0x8000bc08 x30:0x8000bc84 PA:0x8000bc80 store:0x8000bc84 load:0x00000000
         536000	       534	80001628	07fd2e23	sw	x31,124(x26)	 x26:0x8000bc08 x31:0x00000000 PA:0x8000bc84 store:0x00000000 load:0x00000000
         537000	       535	8000162c	34102df3	csrrs	x27,mepc,x0	  x0:0x00000000 x27=0x800000b0
         538000	       536	80001630	34202df3	csrrs	x27,mcause,x0	  x0:0x00000000 x27=0x00000002
         539000	       537	80001634	442d	c.li	x8,11	  x8=0x0000000b
         540000	       538	80001636	008d8d63	beq	x27,x8,80001650	 x27:0x00000002  x8:0x0000000b
         541000	       539	8000163a	4409	c.li	x8,2	  x8=0x00000002
         543000	       541	8000163c	0a8d8563	beq	x27,x8,800016e6	 x27:0x00000002  x8:0x00000002
         546000	       544	800016e6	34102df3	csrrs	x27,mepc,x0	  x0:0x00000000 x27=0x800000b0
         547000	       545	800016ea	0d91	c.addi	x27,4	 x27:0x800000b0 x27=0x800000b4
         548000	       546	800016ec	341d9073	csrrw	x0,mepc,x27	 x27:0x800000b4  x0=0x00000000
         550000	       548	800016f0	004d2083	lw	x1,4(x26)	 x26:0x8000bc08  x1=0x00000000 PA:0x8000bc0c load:0x00000000
         552000	       550	800016f4	008d2103	lw	x2,8(x26)	 x26:0x8000bc08  x2=0x00000000 PA:0x8000bc10 load:0x00000000
         554000	       552	800016f8	00cd2183	lw	x3,12(x26)	 x26:0x8000bc08  x3=0x00000000 PA:0x8000bc14 load:0x00000000
         556000	       554	800016fc	010d2203	lw	x4,16(x26)	 x26:0x8000bc08  x4=0x00000000 PA:0x8000bc18 load:0x00000000
         558000	       556	80001700	014d2283	lw	x5,20(x26)	 x26:0x8000bc08  x5=0x00000000 PA:0x8000bc1c load:0x00000000
         560000	       558	80001704	018d2303	lw	x6,24(x26)	 x26:0x8000bc08  x6=0x00000000 PA:0x8000bc20 load:0x00000000
         562000	       560	80001708	01cd2383	lw	x7,28(x26)	 x26:0x8000bc08  x7=0x00000000 PA:0x8000bc24 load:0x00000000
         564000	       562	8000170c	020d2403	lw	x8,32(x26)	 x26:0x8000bc08  x8=0x00000000 PA:0x8000bc28 load:0x00000000
         566000	       564	80001710	024d2483	lw	x9,36(x26)	 x26:0x8000bc08  x9=0x00000000 PA:0x8000bc2c load:0x00000000
         568000	       566	80001714	028d2503	lw	x10,40(x26)	 x26:0x8000bc08 x10=0x00000000 PA:0x8000bc30 load:0x00000000
         570000	       568	80001718	02cd2583	lw	x11,44(x26)	 x26:0x8000bc08 x11=0x00000000 PA:0x8000bc34 load:0x00000000
         572000	       570	8000171c	030d2603	lw	x12,48(x26)	 x26:0x8000bc08 x12=0x00000000 PA:0x8000bc38 load:0x00000000
         574000	       572	80001720	034d2683	lw	x13,52(x26)	 x26:0x8000bc08 x13=0x00000000 PA:0x8000bc3c load:0x00000000
         576000	       574	80001724	038d2703	lw	x14,56(x26)	 x26:0x8000bc08 x14=0x00000000 PA:0x8000bc40 load:0x00000000
         578000	       576	80001728	03cd2783	lw	x15,60(x26)	 x26:0x8000bc08 x15=0x00000000 PA:0x8000bc44 load:0x00000000
         580000	       578	8000172c	040d2803	lw	x16,64(x26)	 x26:0x8000bc08 x16=0x00000000 PA:0x8000bc48 load:0x00000000
         582000	       580	80001730	044d2883	lw	x17,68(x26)	 x26:0x8000bc08 x17=0x00000000 PA:0x8000bc4c load:0x00000000
         584000	       582	80001734	048d2903	lw	x18,72(x26)	 x26:0x8000bc08 x18=0x00000000 PA:0x8000bc50 load:0x00000000
         586000	       584	80001738	04cd2983	lw	x19,76(x26)	 x26:0x8000bc08 x19=0x00000000 PA:0x8000bc54 load:0x00000000
         588000	       586	8000173c	050d2a03	lw	x20,80(x26)	 x26:0x8000bc08 x20=0x00000000 PA:0x8000bc58 load:0x00000000
         590000	       588	80001740	054d2a83	lw	x21,84(x26)	 x26:0x8000bc08 x21=0x00000000 PA:0x8000bc5c load:0x00000000
         592000	       590	80001744	058d2b03	lw	x22,88(x26)	 x26:0x8000bc08 x22=0x00000000 PA:0x8000bc60 load:0x00000000
         594000	       592	80001748	05cd2b83	lw	x23,92(x26)	 x26:0x8000bc08 x23=0x00000000 PA:0x8000bc64 load:0x00000000
         596000	       594	8000174c	060d2c03	lw	x24,96(x26)	 x26:0x8000bc08 x24=0x00000000 PA:0x8000bc68 load:0x00000000
         598000	       596	80001750	064d2c83	lw	x25,100(x26)	 x26:0x8000bc08 x25=0x00000000 PA:0x8000bc6c load:0x00000000
         600000	       598	80001754	068d2d03	lw	x26,104(x26)	 x26:0x8000bc08 x26=0x8000bc08 PA:0x8000bc70 load:0x8000bc08
         602000	       600	80001758	06cd2d83	lw	x27,108(x26)	 x26:0x8000bc08 x27=0x00000000 PA:0x8000bc74 load:0x00000000
         604000	       602	8000175c	070d2e03	lw	x28,112(x26)	 x26:0x8000bc08 x28=0x00000000 PA:0x8000bc78 load:0x00000000
         606000	       604	80001760	074d2e83	lw	x29,116(x26)	 x26:0x8000bc08 x29=0x00000000 PA:0x8000bc7c load:0x00000000
         608000	       606	80001764	078d2f03	lw	x30,120(x26)	 x26:0x8000bc08 x30=0x8000bc84 PA:0x8000bc80 load:0x8000bc84
         610000	       608	80001768	07cd2f83	lw	x31,124(x26)	 x26:0x8000bc08 x31=0x00000000 PA:0x8000bc84 load:0x00000000
         611000	       609	8000176c	07cd0d13	addi	x26,x26,124	 x26:0x8000bc08 x26=0x8000bc84
         612000	       610	80001770	000d0f33	add	x30,x26,x0	 x26:0x8000bc84  x0:0x00000000 x30=0x8000bc84
         613000	       611	80001774	340d1d73	csrrw	x26,mscratch,x26	 x26:0x8000bc84 x26=0x00000000
         614000	       612	80001778	30200073	mret	
         617000	       615	800000b4	30200073	mret	
         621000	       619	80000000	5a40106f	jal	x0,800015a4	  x0=0x00000000
         622000	       620	800015a4	340d1d73	csrrw	x26,mscratch,x26	 x26:0x00000000 x26=0x8000bc84
         623000	       621	800015a8	000f0d33	add	x26,x30,x0	 x30:0x8000bc84  x0:0x00000000 x26=0x8000bc84
         624000	       622	800015ac	f84d0d13	addi	x26,x26,-124	 x26:0x8000bc84 x26=0x8000bc08
         626000	       624	800015b0	001d2223	sw	x1,4(x26)	 x26:0x8000bc08  x1:0x00000000 PA:0x8000bc0c store:0x00000000 load:0x00000000
         628000	       626	800015b4	002d2423	sw	x2,8(x26)	 x26:0x8000bc08  x2:0x00000000 PA:0x8000bc10 store:0x00000000 load:0x00000000
         630000	       628	800015b8	003d2623	sw	x3,12(x26)	 x26:0x8000bc08  x3:0x00000000 PA:0x8000bc14 store:0x00000000 load:0x00000000
         632000	       630	800015bc	004d2823	sw	x4,16(x26)	 x26:0x8000bc08  x4:0x00000000 PA:0x8000bc18 store:0x00000000 load:0x00000000
         634000	       632	800015c0	005d2a23	sw	x5,20(x26)	 x26:0x8000bc08  x5:0x00000000 PA:0x8000bc1c store:0x00000000 load:0x00000000
         636000	       634	800015c4	006d2c23	sw	x6,24(x26)	 x26:0x8000bc08  x6:0x00000000 PA:0x8000bc20 store:0x00000000 load:0x00000000
         638000	       636	800015c8	007d2e23	sw	x7,28(x26)	 x26:0x8000bc08  x7:0x00000000 PA:0x8000bc24 store:0x00000000 load:0x00000000
         640000	       638	800015cc	028d2023	sw	x8,32(x26)	 x26:0x8000bc08  x8:0x00000000 PA:0x8000bc28 store:0x00000000 load:0x00000000
         642000	       640	800015d0	029d2223	sw	x9,36(x26)	 x26:0x8000bc08  x9:0x00000000 PA:0x8000bc2c store:0x00000000 load:0x00000000
         644000	       642	800015d4	02ad2423	sw	x10,40(x26)	 x26:0x8000bc08 x10:0x00000000 PA:0x8000bc30 store:0x00000000 load:0x00000000
         646000	       644	800015d8	02bd2623	sw	x11,44(x26)	 x26:0x8000bc08 x11:0x00000000 PA:0x8000bc34 store:0x00000000 load:0x00000000
         648000	       646	800015dc	02cd2823	sw	x12,48(x26)	 x26:0x8000bc08 x12:0x00000000 PA:0x8000bc38 store:0x00000000 load:0x00000000
         650000	       648	800015e0	02dd2a23	sw	x13,52(x26)	 x26:0x8000bc08 x13:0x00000000 PA:0x8000bc3c store:0x00000000 load:0x00000000
         652000	       650	800015e4	02ed2c23	sw	x14,56(x26)	 x26:0x8000bc08 x14:0x00000000 PA:0x8000bc40 store:0x00000000 load:0x00000000
         654000	       652	800015e8	02fd2e23	sw	x15,60(x26)	 x26:0x8000bc08 x15:0x00000000 PA:0x8000bc44 store:0x00000000 load:0x00000000
         656000	       654	800015ec	050d2023	sw	x16,64(x26)	 x26:0x8000bc08 x16:0x00000000 PA:0x8000bc48 store:0x00000000 load:0x00000000
         658000	       656	800015f0	051d2223	sw	x17,68(x26)	 x26:0x8000bc08 x17:0x00000000 PA:0x8000bc4c store:0x00000000 load:0x00000000
         660000	       658	800015f4	052d2423	sw	x18,72(x26)	 x26:0x8000bc08 x18:0x00000000 PA:0x8000bc50 store:0x00000000 load:0x00000000
         662000	       660	800015f8	053d2623	sw	x19,76(x26)	 x26:0x8000bc08 x19:0x00000000 PA:0x8000bc54 store:0x00000000 load:0x00000000
         664000	       662	800015fc	054d2823	sw	x20,80(x26)	 x26:0x8000bc08 x20:0x00000000 PA:0x8000bc58 store:0x00000000 load:0x00000000
         666000	       664	80001600	055d2a23	sw	x21,84(x26)	 x26:0x8000bc08 x21:0x00000000 PA:0x8000bc5c store:0x00000000 load:0x00000000
         668000	       666	80001604	056d2c23	sw	x22,88(x26)	 x26:0x8000bc08 x22:0x00000000 PA:0x8000bc60 store:0x00000000 load:0x00000000
         670000	       668	80001608	057d2e23	sw	x23,92(x26)	 x26:0x8000bc08 x23:0x00000000 PA:0x8000bc64 store:0x00000000 load:0x00000000
         672000	       670	8000160c	078d2023	sw	x24,96(x26)	 x26:0x8000bc08 x24:0x00000000 PA:0x8000bc68 store:0x00000000 load:0x00000000
         674000	       672	80001610	079d2223	sw	x25,100(x26)	 x26:0x8000bc08 x25:0x00000000 PA:0x8000bc6c store:0x00000000 load:0x00000000
         676000	       674	80001614	07ad2423	sw	x26,104(x26)	 x26:0x8000bc08 x26:0x8000bc08 PA:0x8000bc70 store:0x8000bc08 load:0x00000000
         678000	       676	80001618	07bd2623	sw	x27,108(x26)	 x26:0x8000bc08 x27:0x00000000 PA:0x8000bc74 store:0x00000000 load:0x00000000
         680000	       678	8000161c	07cd2823	sw	x28,112(x26)	 x26:0x8000bc08 x28:0x00000000 PA:0x8000bc78 store:0x00000000 load:0x00000000
         682000	       680	80001620	07dd2a23	sw	x29,116(x26)	 x26:0x8000bc08 x29:0x00000000 PA:0x8000bc7c store:0x00000000 load:0x00000000
         684000	       682	80001624	07ed2c23	sw	x30,120(x26)	 x26:0x8000bc08 x30:0x8000bc84 PA:0x8000bc80 store:0x8000bc84 load:0x00000000
         686000	       684	80001628	07fd2e23	sw	x31,124(x26)	 x26:0x8000bc08 x31:0x00000000 PA:0x8000bc84 store:0x00000000 load:0x00000000
         687000	       685	8000162c	34102df3	csrrs	x27,mepc,x0	  x0:0x00000000 x27=0x800000b4
         688000	       686	80001630	34202df3	csrrs	x27,mcause,x0	  x0:0x00000000 x27=0x00000002
         689000	       687	80001634	442d	c.li	x8,11	  x8=0x0000000b
         690000	       688	80001636	008d8d63	beq	x27,x8,80001650	 x27:0x00000002  x8:0x0000000b
         691000	       689	8000163a	4409	c.li	x8,2	  x8=0x00000002
         693000	       691	8000163c	0a8d8563	beq	x27,x8,800016e6	 x27:0x00000002  x8:0x00000002
         696000	       694	800016e6	34102df3	csrrs	x27,mepc,x0	  x0:0x00000000 x27=0x800000b4
         697000	       695	800016ea	0d91	c.addi	x27,4	 x27:0x800000b4 x27=0x800000b8
         698000	       696	800016ec	341d9073	csrrw	x0,mepc,x27	 x27:0x800000b8  x0=0x00000000
         700000	       698	800016f0	004d2083	lw	x1,4(x26)	 x26:0x8000bc08  x1=0x00000000 PA:0x8000bc0c load:0x00000000
         702000	       700	800016f4	008d2103	lw	x2,8(x26)	 x26:0x8000bc08  x2=0x00000000 PA:0x8000bc10 load:0x00000000
         704000	       702	800016f8	00cd2183	lw	x3,12(x26)	 x26:0x8000bc08  x3=0x00000000 PA:0x8000bc14 load:0x00000000
         706000	       704	800016fc	010d2203	lw	x4,16(x26)	 x26:0x8000bc08  x4=0x00000000 PA:0x8000bc18 load:0x00000000
         708000	       706	80001700	014d2283	lw	x5,20(x26)	 x26:0x8000bc08  x5=0x00000000 PA:0x8000bc1c load:0x00000000
         710000	       708	80001704	018d2303	lw	x6,24(x26)	 x26:0x8000bc08  x6=0x00000000 PA:0x8000bc20 load:0x00000000
         712000	       710	80001708	01cd2383	lw	x7,28(x26)	 x26:0x8000bc08  x7=0x00000000 PA:0x8000bc24 load:0x00000000
         714000	       712	8000170c	020d2403	lw	x8,32(x26)	 x26:0x8000bc08  x8=0x00000000 PA:0x8000bc28 load:0x00000000
         716000	       714	80001710	024d2483	lw	x9,36(x26)	 x26:0x8000bc08  x9=0x00000000 PA:0x8000bc2c load:0x00000000
         718000	       716	80001714	028d2503	lw	x10,40(x26)	 x26:0x8000bc08 x10=0x00000000 PA:0x8000bc30 load:0x00000000
         720000	       718	80001718	02cd2583	lw	x11,44(x26)	 x26:0x8000bc08 x11=0x00000000 PA:0x8000bc34 load:0x00000000
         722000	       720	8000171c	030d2603	lw	x12,48(x26)	 x26:0x8000bc08 x12=0x00000000 PA:0x8000bc38 load:0x00000000
         724000	       722	80001720	034d2683	lw	x13,52(x26)	 x26:0x8000bc08 x13=0x00000000 PA:0x8000bc3c load:0x00000000
         726000	       724	80001724	038d2703	lw	x14,56(x26)	 x26:0x8000bc08 x14=0x00000000 PA:0x8000bc40 load:0x00000000
         728000	       726	80001728	03cd2783	lw	x15,60(x26)	 x26:0x8000bc08 x15=0x00000000 PA:0x8000bc44 load:0x00000000
         730000	       728	8000172c	040d2803	lw	x16,64(x26)	 x26:0x8000bc08 x16=0x00000000 PA:0x8000bc48 load:0x00000000
         732000	       730	80001730	044d2883	lw	x17,68(x26)	 x26:0x8000bc08 x17=0x00000000 PA:0x8000bc4c load:0x00000000
         734000	       732	80001734	048d2903	lw	x18,72(x26)	 x26:0x8000bc08 x18=0x00000000 PA:0x8000bc50 load:0x00000000
         736000	       734	80001738	04cd2983	lw	x19,76(x26)	 x26:0x8000bc08 x19=0x00000000 PA:0x8000bc54 load:0x00000000
         738000	       736	8000173c	050d2a03	lw	x20,80(x26)	 x26:0x8000bc08 x20=0x00000000 PA:0x8000bc58 load:0x00000000
         740000	       738	80001740	054d2a83	lw	x21,84(x26)	 x26:0x8000bc08 x21=0x00000000 PA:0x8000bc5c load:0x00000000
         742000	       740	80001744	058d2b03	lw	x22,88(x26)	 x26:0x8000bc08 x22=0x00000000 PA:0x8000bc60 load:0x00000000
         744000	       742	80001748	05cd2b83	lw	x23,92(x26)	 x26:0x8000bc08 x23=0x00000000 PA:0x8000bc64 load:0x00000000
         746000	       744	8000174c	060d2c03	lw	x24,96(x26)	 x26:0x8000bc08 x24=0x00000000 PA:0x8000bc68 load:0x00000000
         748000	       746	80001750	064d2c83	lw	x25,100(x26)	 x26:0x8000bc08 x25=0x00000000 PA:0x8000bc6c load:0x00000000
         750000	       748	80001754	068d2d03	lw	x26,104(x26)	 x26:0x8000bc08 x26=0x8000bc08 PA:0x8000bc70 load:0x8000bc08
         752000	       750	80001758	06cd2d83	lw	x27,108(x26)	 x26:0x8000bc08 x27=0x00000000 PA:0x8000bc74 load:0x00000000
         754000	       752	8000175c	070d2e03	lw	x28,112(x26)	 x26:0x8000bc08 x28=0x00000000 PA:0x8000bc78 load:0x00000000
         756000	       754	80001760	074d2e83	lw	x29,116(x26)	 x26:0x8000bc08 x29=0x00000000 PA:0x8000bc7c load:0x00000000
         758000	       756	80001764	078d2f03	lw	x30,120(x26)	 x26:0x8000bc08 x30=0x8000bc84 PA:0x8000bc80 load:0x8000bc84
         760000	       758	80001768	07cd2f83	lw	x31,124(x26)	 x26:0x8000bc08 x31=0x00000000 PA:0x8000bc84 load:0x00000000
         761000	       759	8000176c	07cd0d13	addi	x26,x26,124	 x26:0x8000bc08 x26=0x8000bc84
         762000	       760	80001770	000d0f33	add	x30,x26,x0	 x26:0x8000bc84  x0:0x00000000 x30=0x8000bc84
         763000	       761	80001774	340d1d73	csrrw	x26,mscratch,x26	 x26:0x8000bc84 x26=0x00000000
         764000	       762	80001778	30200073	mret	
         767000	       765	800000b8	00000013	addi	x0,x0,0	  x0:0x00000000  x0=0x00000000
         768000	       766	800000bc	4081	c.li	x1,0	  x1=0x00000000
         769000	       767	800000be	a3eda137	lui	x2,0xa3eda	  x2=0xa3eda000
         770000	       768	800000c2	baa10113	addi	x2,x2,-1110	  x2:0xa3eda000  x2=0xa3ed9baa
         771000	       769	800000c6	4191	c.li	x3,4	  x3=0x00000004
         772000	       770	800000c8	fbc16237	lui	x4,0xfbc16	  x4=0xfbc16000
         773000	       771	800000cc	6bf20213	addi	x4,x4,1727	  x4:0xfbc16000  x4=0xfbc166bf
         774000	       772	800000d0	4291	c.li	x5,4	  x5=0x00000004
         775000	       773	800000d2	ef64e337	lui	x6,0xef64e	  x6=0xef64e000
         776000	       774	800000d6	27b30313	addi	x6,x6,635	  x6:0xef64e000  x6=0xef64e27b
         777000	       775	800000da	239453b7	lui	x7,0x23945	  x7=0x23945000
         778000	       776	800000de	4a238393	addi	x7,x7,1186	  x7:0x23945000  x7=0x239454a2
         779000	       777	800000e2	4401	c.li	x8,0	  x8=0x00000000
         780000	       778	800000e4	4481	c.li	x9,0	  x9=0x00000000
         781000	       779	800000e6	f60ed537	lui	x10,0xf60ed	 x10=0xf60ed000
         782000	       780	800000ea	d1d50513	addi	x10,x10,-739	 x10:0xf60ed000 x10=0xf60ecd1d
         783000	       781	800000ee	f57625b7	lui	x11,0xf5762	 x11=0xf5762000
         784000	       782	800000f2	f3158593	addi	x11,x11,-207	 x11:0xf5762000 x11=0xf5761f31
         785000	       783	800000f6	4629	c.li	x12,10	 x12=0x0000000a
         786000	       784	800000f8	46b5	c.li	x13,13	 x13=0x0000000d
         787000	       785	800000fa	86fcb737	lui	x14,0x86fcb	 x14=0x86fcb000
         788000	       786	800000fe	93a70713	addi	x14,x14,-1734	 x14:0x86fcb000 x14=0x86fca93a
         789000	       787	80000102	4799	c.li	x15,6	 x15=0x00000006
         790000	       788	80000104	4835	c.li	x16,13	 x16=0x0000000d
         791000	       789	80000106	4881	c.li	x17,0	 x17=0x00000000
         792000	       790	80000108	fda41937	lui	x18,0xfda41	 x18=0xfda41000
         793000	       791	8000010c	daf90913	addi	x18,x18,-593	 x18:0xfda41000 x18=0xfda40daf
         794000	       792	80000110	800009b7	lui	x19,0x80000	 x19=0x80000000
         795000	       793	80000114	4a21	c.li	x20,8	 x20=0x00000008
         796000	       794	80000116	4aad	c.li	x21,11	 x21=0x0000000b
         797000	       795	80000118	80000b37	lui	x22,0x80000	 x22=0x80000000
         798000	       796	8000011c	80000bb7	lui	x23,0x80000	 x23=0x80000000
         799000	       797	80000120	80000c37	lui	x24,0x80000	 x24=0x80000000
         800000	       798	80000124	4c81	c.li	x25,0	 x25=0x00000000
         801000	       799	80000126	4d95	c.li	x27,5	 x27=0x00000005
         802000	       800	80000128	4e09	c.li	x28,2	 x28=0x00000002
         803000	       801	8000012a	80000eb7	lui	x29,0x80000	 x29=0x80000000
         804000	       802	8000012e	80000fb7	lui	x31,0x80000	 x31=0x80000000
         805000	       803	80000132	00007d17	auipc	x26,0x7	 x26=0x80007132
         806000	       804	80000136	d32d0d13	addi	x26,x26,-718	 x26:0x80007132 x26=0x80006e64
         808000	       806	8000013a	a009	c.j	8000013c	
         809000	       807	8000013c	4e81	c.li	x29,0	 x29=0x00000000
         810000	       808	8000013e	4e05	c.li	x28,1	 x28=0x00000001
         811000	       809	80000140	4d2f3237	lui	x4,0x4d2f3	  x4=0x4d2f3000
         812000	       810	80000144	23e20213	addi	x4,x4,574	  x4:0x4d2f3000  x4=0x4d2f323e
         813000	       811	80000148	37385537	lui	x10,0x37385	 x10=0x37385000
         814000	       812	8000014c	65a50513	addi	x10,x10,1626	 x10:0x37385000 x10=0x3738565a
         815000	       813	80000150	4d85	c.li	x27,1	 x27=0x00000001
         816000	       814	80000152	6afc68b7	lui	x17,0x6afc6	 x17=0x6afc6000
         817000	       815	80000156	21488893	addi	x17,x17,532	 x17:0x6afc6000 x17=0x6afc6214
         818000	       816	8000015a	33478cb7	lui	x25,0x33478	 x25=0x33478000
         819000	       817	8000015e	cc3c8c93	addi	x25,x25,-829	 x25:0x33478000 x25=0x33477cc3
         820000	       818	80000162	4685	c.li	x13,1	 x13=0x00000001
         821000	       819	80000164	4985	c.li	x19,1	 x19=0x00000001
         822000	       820	80000166	29109c37	lui	x24,0x29109	 x24=0x29109000
         823000	       821	8000016a	0ddc0c13	addi	x24,x24,221	 x24:0x29109000 x24=0x291090dd
         824000	       822	8000016e	0001	c.addi	x0,0	  x0:0x00000000  x0=0x00000000
         828000	       826	80000170	03a2b533	mulhu	x10,x5,x26	  x5:0x00000004 x26:0x80006e64 x10=0x00000002
         829000	       827	80000174	6171	c.addi16sp	x2,336	  x2:0xa3ed9baa  x2=0xa3ed9cfa
         866000	       864	80000176	02aadcb3	divu	x25,x21,x10	 x21:0x0000000b x10:0x00000002 x25=0x00000005
         867000	       865	8000017a	0001	c.addi	x0,0	  x0:0x00000000  x0=0x00000000
         868000	       866	8000017c	0001	c.addi	x0,0	  x0:0x00000000  x0=0x00000000
         905000	       903	8000017e	03f0dbb3	divu	x23,x1,x31	  x1:0x00000000 x31:0x80000000 x23=0x00000000
         906000	       904	80000182	50fd	c.li	x1,-1	  x1=0xffffffff
         907000	       905	80000184	f6410013	addi	x0,x2,-156	  x2:0xa3ed9cfa  x0=0x00000000
         911000	       909	80000188	026fb433	mulhu	x8,x31,x6	 x31:0x80000000  x6:0xef64e27b  x8=0x77b2713d
         912000	       910	8000018c	add7f8b7	lui	x17,0xadd7f	 x17=0xadd7f000
         913000	       911	80000190	4099	c.li	x1,6	  x1=0x00000006
         914000	       912	80000192	0198	c.addi4spn	x14,x2,192	 x14=0xa3ed9dba
         951000	       949	80000194	03156633	rem	x12,x10,x17	 x10:0x00000002 x17:0xadd7f000 x12=0x00000002
         952000	       950	80000198	9df6	c.add	x27,x29	 x27:0x00000001 x29:0x00000000 x27=0x00000001
         956000	       954	8000019a	03a09033	mulh	x0,x1,x26	  x1:0x00000006 x26:0x80006e64  x0=0x00000000
         957000	       955	8000019e	8d97f013	andi	x0,x15,-1831	 x15:0x00000006  x0=0x00000000
         958000	       956	800001a2	8e91	c.sub	x13,x12	 x13:0x00000001 x12:0x00000002 x13=0xffffffff
         959000	       957	800001a4	8d55	c.or	x10,x13	 x10:0x00000002 x13:0xffffffff x10=0xffffffff
         962000	       960	800001a6	028f0933	mul	x18,x30,x8	 x30:0x8000bc84  x8:0x77b2713d x18=0x432b2f74
         963000	       961	800001aa	5ac0e693	ori	x13,x1,1452	  x1:0x00000006 x13=0x000005ae
         964000	       962	800001ae	8eb5	c.xor	x13,x13	 x13:0x000005ae x13:0x000005ae x13=0x00000000
         965000	       963	800001b0	46e84c37	lui	x24,0x46e84	 x24=0x46e84000
         966000	       964	800001b4	8edd	c.or	x13,x15	 x13:0x00000000 x15:0x00000006 x13=0x00000006
         967000	       965	800001b6	0074be33	sltu	x28,x9,x7	  x9:0x00000000  x7:0x239454a2 x28=0x00000001
         968000	       966	800001ba	14fd	c.addi	x9,-1	  x9:0x00000000  x9=0xffffffff
         969000	       967	800001bc	50fd	c.li	x1,-1	  x1=0xffffffff
         970000	       968	800001be	00000f97	auipc	x31,0x0	 x31=0x800001be
         971000	       969	800001c2	00cf8f93	addi	x31,x31,12	 x31:0x800001be x31=0x800001ca
         973000	       971	800001c6	000f8067	jalr	x0,0(x31)	 x31:0x800001ca  x0=0x00000000
         974000	       972	800001ca	4185	c.li	x3,1	  x3=0x00000001
         975000	       973	800001cc	00000073	ecall	
         979000	       977	80000000	5a40106f	jal	x0,800015a4	  x0=0x00000000
         980000	       978	800015a4	340d1d73	csrrw	x26,mscratch,x26	 x26:0x80006e64 x26=0x8000bc84
         981000	       979	800015a8	000f0d33	add	x26,x30,x0	 x30:0x8000bc84  x0:0x00000000 x26=0x8000bc84
         982000	       980	800015ac	f84d0d13	addi	x26,x26,-124	 x26:0x8000bc84 x26=0x8000bc08
         984000	       982	800015b0	001d2223	sw	x1,4(x26)	 x26:0x8000bc08  x1:0xffffffff PA:0x8000bc0c store:0xffffffff load:0x00000000
         986000	       984	800015b4	002d2423	sw	x2,8(x26)	 x26:0x8000bc08  x2:0xa3ed9cfa PA:0x8000bc10 store:0xa3ed9cfa load:0x00000000
         988000	       986	800015b8	003d2623	sw	x3,12(x26)	 x26:0x8000bc08  x3:0x00000001 PA:0x8000bc14 store:0x00000001 load:0x00000000
         990000	       988	800015bc	004d2823	sw	x4,16(x26)	 x26:0x8000bc08  x4:0x4d2f323e PA:0x8000bc18 store:0x4d2f323e load:0x00000000
         992000	       990	800015c0	005d2a23	sw	x5,20(x26)	 x26:0x8000bc08  x5:0x00000004 PA:0x8000bc1c store:0x00000004 load:0x00000000
         994000	       992	800015c4	006d2c23	sw	x6,24(x26)	 x26:0x8000bc08  x6:0xef64e27b PA:0x8000bc20 store:0xef64e27b load:0x00000000
         996000	       994	800015c8	007d2e23	sw	x7,28(x26)	 x26:0x8000bc08  x7:0x239454a2 PA:0x8000bc24 store:0x239454a2 load:0x00000000
         998000	       996	800015cc	028d2023	sw	x8,32(x26)	 x26:0x8000bc08  x8:0x77b2713d PA:0x8000bc28 store:0x77b2713d load:0x00000000
        1000000	       998	800015d0	029d2223	sw	x9,36(x26)	 x26:0x8000bc08  x9:0xffffffff PA:0x8000bc2c store:0xffffffff load:0x00000000
        1002000	      1000	800015d4	02ad2423	sw	x10,40(x26)	 x26:0x8000bc08 x10:0xffffffff PA:0x8000bc30 store:0xffffffff load:0x00000000
        1004000	      1002	800015d8	02bd2623	sw	x11,44(x26)	 x26:0x8000bc08 x11:0xf5761f31 PA:0x8000bc34 store:0xf5761f31 load:0x00000000
        1006000	      1004	800015dc	02cd2823	sw	x12,48(x26)	 x26:0x8000bc08 x12:0x00000002 PA:0x8000bc38 store:0x00000002 load:0x00000000
        1008000	      1006	800015e0	02dd2a23	sw	x13,52(x26)	 x26:0x8000bc08 x13:0x00000006 PA:0x8000bc3c store:0x00000006 load:0x00000000
        1010000	      1008	800015e4	02ed2c23	sw	x14,56(x26)	 x26:0x8000bc08 x14:0xa3ed9dba PA:0x8000bc40 store:0xa3ed9dba load:0x00000000
        1012000	      1010	800015e8	02fd2e23	sw	x15,60(x26)	 x26:0x8000bc08 x15:0x00000006 PA:0x8000bc44 store:0x00000006 load:0x00000000
        1014000	      1012	800015ec	050d2023	sw	x16,64(x26)	 x26:0x8000bc08 x16:0x0000000d PA:0x8000bc48 store:0x0000000d load:0x00000000
        1016000	      1014	800015f0	051d2223	sw	x17,68(x26)	 x26:0x8000bc08 x17:0xadd7f000 PA:0x8000bc4c store:0xadd7f000 load:0x00000000
        1018000	      1016	800015f4	052d2423	sw	x18,72(x26)	 x26:0x8000bc08 x18:0x432b2f74 PA:0x8000bc50 store:0x432b2f74 load:0x00000000
        1020000	      1018	800015f8	053d2623	sw	x19,76(x26)	 x26:0x8000bc08 x19:0x00000001 PA:0x8000bc54 store:0x00000001 load:0x00000000
        1022000	      1020	800015fc	054d2823	sw	x20,80(x26)	 x26:0x8000bc08 x20:0x00000008 PA:0x8000bc58 store:0x00000008 load:0x00000000
        1024000	      1022	80001600	055d2a23	sw	x21,84(x26)	 x26:0x8000bc08 x21:0x0000000b PA:0x8000bc5c store:0x0000000b load:0x00000000
        1026000	      1024	80001604	056d2c23	sw	x22,88(x26)	 x26:0x8000bc08 x22:0x80000000 PA:0x8000bc60 store:0x80000000 load:0x00000000
        1028000	      1026	80001608	057d2e23	sw	x23,92(x26)	 x26:0x8000bc08 x23:0x00000000 PA:0x8000bc64 store:0x00000000 load:0x00000000
        1030000	      1028	8000160c	078d2023	sw	x24,96(x26)	 x26:0x8000bc08 x24:0x46e84000 PA:0x8000bc68 store:0x46e84000 load:0x00000000
        1032000	      1030	80001610	079d2223	sw	x25,100(x26)	 x26:0x8000bc08 x25:0x00000005 PA:0x8000bc6c store:0x00000005 load:0x00000000
        1034000	      1032	80001614	07ad2423	sw	x26,104(x26)	 x26:0x8000bc08 x26:0x8000bc08 PA:0x8000bc70 store:0x8000bc08 load:0x00000000
        1036000	      1034	80001618	07bd2623	sw	x27,108(x26)	 x26:0x8000bc08 x27:0x00000001 PA:0x8000bc74 store:0x00000001 load:0x00000000
        1038000	      1036	8000161c	07cd2823	sw	x28,112(x26)	 x26:0x8000bc08 x28:0x00000001 PA:0x8000bc78 store:0x00000001 load:0x00000000
        1040000	      1038	80001620	07dd2a23	sw	x29,116(x26)	 x26:0x8000bc08 x29:0x00000000 PA:0x8000bc7c store:0x00000000 load:0x00000000
        1042000	      1040	80001624	07ed2c23	sw	x30,120(x26)	 x26:0x8000bc08 x30:0x8000bc84 PA:0x8000bc80 store:0x8000bc84 load:0x00000000
        1044000	      1042	80001628	07fd2e23	sw	x31,124(x26)	 x26:0x8000bc08 x31:0x800001ca PA:0x8000bc84 store:0x800001ca load:0x00000000
        1045000	      1043	8000162c	34102df3	csrrs	x27,mepc,x0	  x0:0x00000000 x27=0x800001cc
        1046000	      1044	80001630	34202df3	csrrs	x27,mcause,x0	  x0:0x00000000 x27=0x00000008
        1047000	      1045	80001634	442d	c.li	x8,11	  x8=0x0000000b
        1048000	      1046	80001636	008d8d63	beq	x27,x8,80001650	 x27:0x00000008  x8:0x0000000b
        1049000	      1047	8000163a	4409	c.li	x8,2	  x8=0x00000002
        1050000	      1048	8000163c	0a8d8563	beq	x27,x8,800016e6	 x27:0x00000008  x8:0x00000002
        1051000	      1049	80001640	34302473	csrrs	x8,mtval,x0	  x0:0x00000000  x8=0x00000000
        1052000	      1050	80001644	ffffff97	auipc	x31,0xfffff	 x31=0x80000644
        1053000	      1051	80001648	b86f8f93	addi	x31,x31,-1146	 x31:0x80000644 x31=0x800001ca
        1055000	      1053	8000164c	000f80e7	jalr	x1,0(x31)	 x31:0x800001ca  x1=0x80001650
        1056000	      1054	800001ca	4185	c.li	x3,1	  x3=0x00000001
        1057000	      1055	800001cc	00000073	ecall	
        1061000	      1059	80000000	5a40106f	jal	x0,800015a4	  x0=0x00000000
        1062000	      1060	800015a4	340d1d73	csrrw	x26,mscratch,x26	 x26:0x8000bc08 x26=0x80006e64
        1063000	      1061	800015a8	000f0d33	add	x26,x30,x0	 x30:0x8000bc84  x0:0x00000000 x26=0x8000bc84
        1064000	      1062	800015ac	f84d0d13	addi	x26,x26,-124	 x26:0x8000bc84 x26=0x8000bc08
        1066000	      1064	800015b0	001d2223	sw	x1,4(x26)	 x26:0x8000bc08  x1:0x80001650 PA:0x8000bc0c store:0x80001650 load:0x00000000
        1068000	      1066	800015b4	002d2423	sw	x2,8(x26)	 x26:0x8000bc08  x2:0xa3ed9cfa PA:0x8000bc10 store:0xa3ed9cfa load:0x00000000
        1070000	      1068	800015b8	003d2623	sw	x3,12(x26)	 x26:0x8000bc08  x3:0x00000001 PA:0x8000bc14 store:0x00000001 load:0x00000000
        1072000	      1070	800015bc	004d2823	sw	x4,16(x26)	 x26:0x8000bc08  x4:0x4d2f323e PA:0x8000bc18 store:0x4d2f323e load:0x00000000
        1074000	      1072	800015c0	005d2a23	sw	x5,20(x26)	 x26:0x8000bc08  x5:0x00000004 PA:0x8000bc1c store:0x00000004 load:0x00000000
        1076000	      1074	800015c4	006d2c23	sw	x6,24(x26)	 x26:0x8000bc08  x6:0xef64e27b PA:0x8000bc20 store:0xef64e27b load:0x00000000
        1078000	      1076	800015c8	007d2e23	sw	x7,28(x26)	 x26:0x8000bc08  x7:0x239454a2 PA:0x8000bc24 store:0x239454a2 load:0x00000000
        1080000	      1078	800015cc	028d2023	sw	x8,32(x26)	 x26:0x8000bc08  x8:0x00000000 PA:0x8000bc28 store:0x00000000 load:0x00000000
        1082000	      1080	800015d0	029d2223	sw	x9,36(x26)	 x26:0x8000bc08  x9:0xffffffff PA:0x8000bc2c store:0xffffffff load:0x00000000
        1084000	      1082	800015d4	02ad2423	sw	x10,40(x26)	 x26:0x8000bc08 x10:0xffffffff PA:0x8000bc30 store:0xffffffff load:0x00000000
        1086000	      1084	800015d8	02bd2623	sw	x11,44(x26)	 x26:0x8000bc08 x11:0xf5761f31 PA:0x8000bc34 store:0xf5761f31 load:0x00000000
        1088000	      1086	800015dc	02cd2823	sw	x12,48(x26)	 x26:0x8000bc08 x12:0x00000002 PA:0x8000bc38 store:0x00000002 load:0x00000000
        1090000	      1088	800015e0	02dd2a23	sw	x13,52(x26)	 x26:0x8000bc08 x13:0x00000006 PA:0x8000bc3c store:0x00000006 load:0x00000000
        1092000	      1090	800015e4	02ed2c23	sw	x14,56(x26)	 x26:0x8000bc08 x14:0xa3ed9dba PA:0x8000bc40 store:0xa3ed9dba load:0x00000000
        1094000	      1092	800015e8	02fd2e23	sw	x15,60(x26)	 x26:0x8000bc08 x15:0x00000006 PA:0x8000bc44 store:0x00000006 load:0x00000000
        1096000	      1094	800015ec	050d2023	sw	x16,64(x26)	 x26:0x8000bc08 x16:0x0000000d PA:0x8000bc48 store:0x0000000d load:0x00000000
        1098000	      1096	800015f0	051d2223	sw	x17,68(x26)	 x26:0x8000bc08 x17:0xadd7f000 PA:0x8000bc4c store:0xadd7f000 load:0x00000000
        1100000	      1098	800015f4	052d2423	sw	x18,72(x26)	 x26:0x8000bc08 x18:0x432b2f74 PA:0x8000bc50 store:0x432b2f74 load:0x00000000
        1102000	      1100	800015f8	053d2623	sw	x19,76(x26)	 x26:0x8000bc08 x19:0x00000001 PA:0x8000bc54 store:0x00000001 load:0x00000000
        1104000	      1102	800015fc	054d2823	sw	x20,80(x26)	 x26:0x8000bc08 x20:0x00000008 PA:0x8000bc58 store:0x00000008 load:0x00000000
        1106000	      1104	80001600	055d2a23	sw	x21,84(x26)	 x26:0x8000bc08 x21:0x0000000b PA:0x8000bc5c store:0x0000000b load:0x00000000
        1108000	      1106	80001604	056d2c23	sw	x22,88(x26)	 x26:0x8000bc08 x22:0x80000000 PA:0x8000bc60 store:0x80000000 load:0x00000000
        1110000	      1108	80001608	057d2e23	sw	x23,92(x26)	 x26:0x8000bc08 x23:0x00000000 PA:0x8000bc64 store:0x00000000 load:0x00000000
        1112000	      1110	8000160c	078d2023	sw	x24,96(x26)	 x26:0x8000bc08 x24:0x46e84000 PA:0x8000bc68 store:0x46e84000 load:0x00000000
        1114000	      1112	80001610	079d2223	sw	x25,100(x26)	 x26:0x8000bc08 x25:0x00000005 PA:0x8000bc6c store:0x00000005 load:0x00000000
        1116000	      1114	80001614	07ad2423	sw	x26,104(x26)	 x26:0x8000bc08 x26:0x8000bc08 PA:0x8000bc70 store:0x8000bc08 load:0x00000000
        1118000	      1116	80001618	07bd2623	sw	x27,108(x26)	 x26:0x8000bc08 x27:0x00000008 PA:0x8000bc74 store:0x00000008 load:0x00000000
        1120000	      1118	8000161c	07cd2823	sw	x28,112(x26)	 x26:0x8000bc08 x28:0x00000001 PA:0x8000bc78 store:0x00000001 load:0x00000000
        1122000	      1120	80001620	07dd2a23	sw	x29,116(x26)	 x26:0x8000bc08 x29:0x00000000 PA:0x8000bc7c store:0x00000000 load:0x00000000
        1124000	      1122	80001624	07ed2c23	sw	x30,120(x26)	 x26:0x8000bc08 x30:0x8000bc84 PA:0x8000bc80 store:0x8000bc84 load:0x00000000
        1126000	      1124	80001628	07fd2e23	sw	x31,124(x26)	 x26:0x8000bc08 x31:0x800001ca PA:0x8000bc84 store:0x800001ca load:0x00000000
        1127000	      1125	8000162c	34102df3	csrrs	x27,mepc,x0	  x0:0x00000000 x27=0x800001cc
        1128000	      1126	80001630	34202df3	csrrs	x27,mcause,x0	  x0:0x00000000 x27=0x0000000b
        1129000	      1127	80001634	442d	c.li	x8,11	  x8=0x0000000b
        1131000	      1129	80001636	008d8d63	beq	x27,x8,80001650	 x27:0x0000000b  x8:0x0000000b
        1133000	      1131	80001650	fffffd97	auipc	x27,0xfffff	 x27=0x80000650
        1134000	      1132	80001654	a30d8d93	addi	x27,x27,-1488	 x27:0x80000650 x27=0x80000080
        1136000	      1134	80001658	000da023	sw	x0,0(x27)	 x27:0x80000080  x0:0x00000000 PA:0x80000080 store:0x00000000 load:0x00000000
        1138000	      1136	8000165c	001da223	sw	x1,4(x27)	 x27:0x80000080  x1:0x80001650 PA:0x80000084 store:0x80001650 load:0x00000000
        1140000	      1138	80001660	002da423	sw	x2,8(x27)	 x27:0x80000080  x2:0xa3ed9cfa PA:0x80000088 store:0xa3ed9cfa load:0x00000000
        1142000	      1140	80001664	003da623	sw	x3,12(x27)	 x27:0x80000080  x3:0x00000001 PA:0x8000008c store:0x00000001 load:0x00000000
        1144000	      1142	80001668	004da823	sw	x4,16(x27)	 x27:0x80000080  x4:0x4d2f323e PA:0x80000090 store:0x4d2f323e load:0x00000000
        1146000	      1144	8000166c	005daa23	sw	x5,20(x27)	 x27:0x80000080  x5:0x00000004 PA:0x80000094 store:0x00000004 load:0x00000000
        1148000	      1146	80001670	006dac23	sw	x6,24(x27)	 x27:0x80000080  x6:0xef64e27b PA:0x80000098 store:0xef64e27b load:0x00000000
        1150000	      1148	80001674	007dae23	sw	x7,28(x27)	 x27:0x80000080  x7:0x239454a2 PA:0x8000009c store:0x239454a2 load:0x00000000
        1152000	      1150	80001678	028da023	sw	x8,32(x27)	 x27:0x80000080  x8:0x0000000b PA:0x800000a0 store:0x0000000b load:0x00000000
        1154000	      1152	8000167c	029da223	sw	x9,36(x27)	 x27:0x80000080  x9:0xffffffff PA:0x800000a4 store:0xffffffff load:0x00000000
        1156000	      1154	80001680	02ada423	sw	x10,40(x27)	 x27:0x80000080 x10:0xffffffff PA:0x800000a8 store:0xffffffff load:0x00000000
        1158000	      1156	80001684	02bda623	sw	x11,44(x27)	 x27:0x80000080 x11:0xf5761f31 PA:0x800000ac store:0xf5761f31 load:0x00000000
        1160000	      1158	80001688	02cda823	sw	x12,48(x27)	 x27:0x80000080 x12:0x00000002 PA:0x800000b0 store:0x00000002 load:0x00000000
        1162000	      1160	8000168c	02ddaa23	sw	x13,52(x27)	 x27:0x80000080 x13:0x00000006 PA:0x800000b4 store:0x00000006 load:0x00000000
        1164000	      1162	80001690	02edac23	sw	x14,56(x27)	 x27:0x80000080 x14:0xa3ed9dba PA:0x800000b8 store:0xa3ed9dba load:0x00000000
        1166000	      1164	80001694	02fdae23	sw	x15,60(x27)	 x27:0x80000080 x15:0x00000006 PA:0x800000bc store:0x00000006 load:0x00000000
        1168000	      1166	80001698	050da023	sw	x16,64(x27)	 x27:0x80000080 x16:0x0000000d PA:0x800000c0 store:0x0000000d load:0x00000000
        1170000	      1168	8000169c	051da223	sw	x17,68(x27)	 x27:0x80000080 x17:0xadd7f000 PA:0x800000c4 store:0xadd7f000 load:0x00000000
        1172000	      1170	800016a0	052da423	sw	x18,72(x27)	 x27:0x80000080 x18:0x432b2f74 PA:0x800000c8 store:0x432b2f74 load:0x00000000
        1174000	      1172	800016a4	053da623	sw	x19,76(x27)	 x27:0x80000080 x19:0x00000001 PA:0x800000cc store:0x00000001 load:0x00000000
        1176000	      1174	800016a8	054da823	sw	x20,80(x27)	 x27:0x80000080 x20:0x00000008 PA:0x800000d0 store:0x00000008 load:0x00000000
        1178000	      1176	800016ac	055daa23	sw	x21,84(x27)	 x27:0x80000080 x21:0x0000000b PA:0x800000d4 store:0x0000000b load:0x00000000
        1180000	      1178	800016b0	056dac23	sw	x22,88(x27)	 x27:0x80000080 x22:0x80000000 PA:0x800000d8 store:0x80000000 load:0x00000000
        1182000	      1180	800016b4	057dae23	sw	x23,92(x27)	 x27:0x80000080 x23:0x00000000 PA:0x800000dc store:0x00000000 load:0x00000000
        1184000	      1182	800016b8	078da023	sw	x24,96(x27)	 x27:0x80000080 x24:0x46e84000 PA:0x800000e0 store:0x46e84000 load:0x00000000
        1186000	      1184	800016bc	079da223	sw	x25,100(x27)	 x27:0x80000080 x25:0x00000005 PA:0x800000e4 store:0x00000005 load:0x00000000
        1188000	      1186	800016c0	07ada423	sw	x26,104(x27)	 x27:0x80000080 x26:0x8000bc08 PA:0x800000e8 store:0x8000bc08 load:0x00000000
        1190000	      1188	800016c4	07bda623	sw	x27,108(x27)	 x27:0x80000080 x27:0x80000080 PA:0x800000ec store:0x80000080 load:0x00000000
        1192000	      1190	800016c8	07cda823	sw	x28,112(x27)	 x27:0x80000080 x28:0x00000001 PA:0x800000f0 store:0x00000001 load:0x00000000
        1194000	      1192	800016cc	07ddaa23	sw	x29,116(x27)	 x27:0x80000080 x29:0x00000000 PA:0x800000f4 store:0x00000000 load:0x00000000
        1196000	      1194	800016d0	07edac23	sw	x30,120(x27)	 x27:0x80000080 x30:0x8000bc84 PA:0x800000f8 store:0x8000bc84 load:0x00000000
        1198000	      1196	800016d4	07fdae23	sw	x31,124(x27)	 x27:0x80000080 x31:0x800001ca PA:0x800000fc store:0x800001ca load:0x00000000
        1199000	      1197	800016d8	34102df3	csrrs	x27,mepc,x0	  x0:0x00000000 x27=0x800001cc
        1200000	      1198	800016dc	0d91	c.addi	x27,4	 x27:0x800001cc x27=0x800001d0
        1201000	      1199	800016de	341d9073	csrrw	x0,mepc,x27	 x27:0x800001d0  x0=0x00000000
        1202000	      1200	800016e2	30200073	mret	
        1205000	      1203	800001d0	00002f17	auipc	x30,0x2	 x30=0x800021d0
        1207000	      1205	800001d4	e23f2823	sw	x3,-464(x30)	 x30:0x800021d0  x3:0x00000001 PA:0x80002000 store:0x00000001 load:0x00000000
        1209000	      1207	800001d8	bfe5	c.j	800001d0	
        1210000	      1208	800001d0	00002f17	auipc	x30,0x2	 x30=0x800021d0
        1212000	      1210	800001d4	e23f2823	sw	x3,-464(x30)	 x30:0x800021d0  x3:0x00000001 PA:0x80002000 store:0x00000001 load:0x00000000
        1214000	      1212	800001d8	bfe5	c.j	800001d0	
        1215000	      1213	800001d0	00002f17	auipc	x30,0x2	 x30=0x800021d0
        1217000	      1215	800001d4	e23f2823	sw	x3,-464(x30)	 x30:0x800021d0  x3:0x00000001 PA:0x80002000 store:0x00000001 load:0x00000000
        1219000	      1217	800001d8	bfe5	c.j	800001d0	
        1220000	      1218	800001d0	00002f17	auipc	x30,0x2	 x30=0x800021d0
        1222000	      1220	800001d4	e23f2823	sw	x3,-464(x30)	 x30:0x800021d0  x3:0x00000001 PA:0x80002000 store:0x00000001 load:0x00000000
        1224000	      1222	800001d8	bfe5	c.j	800001d0	
        1225000	      1223	800001d0	00002f17	auipc	x30,0x2	 x30=0x800021d0
        1227000	      1225	800001d4	e23f2823	sw	x3,-464(x30)	 x30:0x800021d0  x3:0x00000001 PA:0x80002000 store:0x00000001 load:0x00000000
        1229000	      1227	800001d8	bfe5	c.j	800001d0	
        1230000	      1228	800001d0	00002f17	auipc	x30,0x2	 x30=0x800021d0
        1232000	      1230	800001d4	e23f2823	sw	x3,-464(x30)	 x30:0x800021d0  x3:0x00000001 PA:0x80002000 store:0x00000001 load:0x00000000
        1234000	      1232	800001d8	bfe5	c.j	800001d0	
        1235000	      1233	800001d0	00002f17	auipc	x30,0x2	 x30=0x800021d0
        1237000	      1235	800001d4	e23f2823	sw	x3,-464(x30)	 x30:0x800021d0  x3:0x00000001 PA:0x80002000 store:0x00000001 load:0x00000000
        1239000	      1237	800001d8	bfe5	c.j	800001d0	
        1240000	      1238	800001d0	00002f17	auipc	x30,0x2	 x30=0x800021d0
        1242000	      1240	800001d4	e23f2823	sw	x3,-464(x30)	 x30:0x800021d0  x3:0x00000001 PA:0x80002000 store:0x00000001 load:0x00000000
        1244000	      1242	800001d8	bfe5	c.j	800001d0	
        1245000	      1243	800001d0	00002f17	auipc	x30,0x2	 x30=0x800021d0
        1247000	      1245	800001d4	e23f2823	sw	x3,-464(x30)	 x30:0x800021d0  x3:0x00000001 PA:0x80002000 store:0x00000001 load:0x00000000
        1249000	      1247	800001d8	bfe5	c.j	800001d0	
        1250000	      1248	800001d0	00002f17	auipc	x30,0x2	 x30=0x800021d0
        1252000	      1250	800001d4	e23f2823	sw	x3,-464(x30)	 x30:0x800021d0  x3:0x00000001 PA:0x80002000 store:0x00000001 load:0x00000000
        1254000	      1252	800001d8	bfe5	c.j	800001d0	
        1255000	      1253	800001d0	00002f17	auipc	x30,0x2	 x30=0x800021d0
        1257000	      1255	800001d4	e23f2823	sw	x3,-464(x30)	 x30:0x800021d0  x3:0x00000001 PA:0x80002000 store:0x00000001 load:0x00000000
        1259000	      1257	800001d8	bfe5	c.j	800001d0	
        1260000	      1258	800001d0	00002f17	auipc	x30,0x2	 x30=0x800021d0
        1262000	      1260	800001d4	e23f2823	sw	x3,-464(x30)	 x30:0x800021d0  x3:0x00000001 PA:0x80002000 store:0x00000001 load:0x00000000
        1264000	      1262	800001d8	bfe5	c.j	800001d0	
        1265000	      1263	800001d0	00002f17	auipc	x30,0x2	 x30=0x800021d0
        1267000	      1265	800001d4	e23f2823	sw	x3,-464(x30)	 x30:0x800021d0  x3:0x00000001 PA:0x80002000 store:0x00000001 load:0x00000000
        1269000	      1267	800001d8	bfe5	c.j	800001d0	
        1270000	      1268	800001d0	00002f17	auipc	x30,0x2	 x30=0x800021d0
        1272000	      1270	800001d4	e23f2823	sw	x3,-464(x30)	 x30:0x800021d0  x3:0x00000001 PA:0x80002000 store:0x00000001 load:0x00000000
        1274000	      1272	800001d8	bfe5	c.j	800001d0	
        1275000	      1273	800001d0	00002f17	auipc	x30,0x2	 x30=0x800021d0
        1277000	      1275	800001d4	e23f2823	sw	x3,-464(x30)	 x30:0x800021d0  x3:0x00000001 PA:0x80002000 store:0x00000001 load:0x00000000
        1279000	      1277	800001d8	bfe5	c.j	800001d0	
        1280000	      1278	800001d0	00002f17	auipc	x30,0x2	 x30=0x800021d0
        1282000	      1280	800001d4	e23f2823	sw	x3,-464(x30)	 x30:0x800021d0  x3:0x00000001 PA:0x80002000 store:0x00000001 load:0x00000000
        1284000	      1282	800001d8	bfe5	c.j	800001d0	
        1285000	      1283	800001d0	00002f17	auipc	x30,0x2	 x30=0x800021d0
        1287000	      1285	800001d4	e23f2823	sw	x3,-464(x30)	 x30:0x800021d0  x3:0x00000001 PA:0x80002000 store:0x00000001 load:0x00000000
        1289000	      1287	800001d8	bfe5	c.j	800001d0	
        1290000	      1288	800001d0	00002f17	auipc	x30,0x2	 x30=0x800021d0
        1292000	      1290	800001d4	e23f2823	sw	x3,-464(x30)	 x30:0x800021d0  x3:0x00000001 PA:0x80002000 store:0x00000001 load:0x00000000
        1294000	      1292	800001d8	bfe5	c.j	800001d0	
        1295000	      1293	800001d0	00002f17	auipc	x30,0x2	 x30=0x800021d0
        1297000	      1295	800001d4	e23f2823	sw	x3,-464(x30)	 x30:0x800021d0  x3:0x00000001 PA:0x80002000 store:0x00000001 load:0x00000000
        1299000	      1297	800001d8	bfe5	c.j	800001d0	
        1300000	      1298	800001d0	00002f17	auipc	x30,0x2	 x30=0x800021d0
        1302000	      1300	800001d4	e23f2823	sw	x3,-464(x30)	 x30:0x800021d0  x3:0x00000001 PA:0x80002000 store:0x00000001 load:0x00000000
        1304000	      1302	800001d8	bfe5	c.j	800001d0	
        1305000	      1303	800001d0	00002f17	auipc	x30,0x2	 x30=0x800021d0
        1307000	      1305	800001d4	e23f2823	sw	x3,-464(x30)	 x30:0x800021d0  x3:0x00000001 PA:0x80002000 store:0x00000001 load:0x00000000
        1309000	      1307	800001d8	bfe5	c.j	800001d0	
        1310000	      1308	800001d0	00002f17	auipc	x30,0x2	 x30=0x800021d0
        1312000	      1310	800001d4	e23f2823	sw	x3,-464(x30)	 x30:0x800021d0  x3:0x00000001 PA:0x80002000 store:0x00000001 load:0x00000000
        1314000	      1312	800001d8	bfe5	c.j	800001d0	
        1315000	      1313	800001d0	00002f17	auipc	x30,0x2	 x30=0x800021d0
        1317000	      1315	800001d4	e23f2823	sw	x3,-464(x30)	 x30:0x800021d0  x3:0x00000001 PA:0x80002000 store:0x00000001 load:0x00000000
        1319000	      1317	800001d8	bfe5	c.j	800001d0	
        1320000	      1318	800001d0	00002f17	auipc	x30,0x2	 x30=0x800021d0
        1322000	      1320	800001d4	e23f2823	sw	x3,-464(x30)	 x30:0x800021d0  x3:0x00000001 PA:0x80002000 store:0x00000001 load:0x00000000
        1324000	      1322	800001d8	bfe5	c.j	800001d0	
        1325000	      1323	800001d0	00002f17	auipc	x30,0x2	 x30=0x800021d0
        1327000	      1325	800001d4	e23f2823	sw	x3,-464(x30)	 x30:0x800021d0  x3:0x00000001 PA:0x80002000 store:0x00000001 load:0x00000000
        1329000	      1327	800001d8	bfe5	c.j	800001d0	
        1330000	      1328	800001d0	00002f17	auipc	x30,0x2	 x30=0x800021d0
        1332000	      1330	800001d4	e23f2823	sw	x3,-464(x30)	 x30:0x800021d0  x3:0x00000001 PA:0x80002000 store:0x00000001 load:0x00000000
        1334000	      1332	800001d8	bfe5	c.j	800001d0	
        1335000	      1333	800001d0	00002f17	auipc	x30,0x2	 x30=0x800021d0
        1337000	      1335	800001d4	e23f2823	sw	x3,-464(x30)	 x30:0x800021d0  x3:0x00000001 PA:0x80002000 store:0x00000001 load:0x00000000
        1339000	      1337	800001d8	bfe5	c.j	800001d0	
        1340000	      1338	800001d0	00002f17	auipc	x30,0x2	 x30=0x800021d0
        1342000	      1340	800001d4	e23f2823	sw	x3,-464(x30)	 x30:0x800021d0  x3:0x00000001 PA:0x80002000 store:0x00000001 load:0x00000000
        1344000	      1342	800001d8	bfe5	c.j	800001d0	
        1345000	      1343	800001d0	00002f17	auipc	x30,0x2	 x30=0x800021d0
        1347000	      1345	800001d4	e23f2823	sw	x3,-464(x30)	 x30:0x800021d0  x3:0x00000001 PA:0x80002000 store:0x00000001 load:0x00000000
        1349000	      1347	800001d8	bfe5	c.j	800001d0	
        1350000	      1348	800001d0	00002f17	auipc	x30,0x2	 x30=0x800021d0
        1352000	      1350	800001d4	e23f2823	sw	x3,-464(x30)	 x30:0x800021d0  x3:0x00000001 PA:0x80002000 store:0x00000001 load:0x00000000
        1354000	      1352	800001d8	bfe5	c.j	800001d0	
        1355000	      1353	800001d0	00002f17	auipc	x30,0x2	 x30=0x800021d0
        1357000	      1355	800001d4	e23f2823	sw	x3,-464(x30)	 x30:0x800021d0  x3:0x00000001 PA:0x80002000 store:0x00000001 load:0x00000000
        1359000	      1357	800001d8	bfe5	c.j	800001d0	
        1360000	      1358	800001d0	00002f17	auipc	x30,0x2	 x30=0x800021d0
        1362000	      1360	800001d4	e23f2823	sw	x3,-464(x30)	 x30:0x800021d0  x3:0x00000001 PA:0x80002000 store:0x00000001 load:0x00000000
        1364000	      1362	800001d8	bfe5	c.j	800001d0	
        1365000	      1363	800001d0	00002f17	auipc	x30,0x2	 x30=0x800021d0
        1367000	      1365	800001d4	e23f2823	sw	x3,-464(x30)	 x30:0x800021d0  x3:0x00000001 PA:0x80002000 store:0x00000001 load:0x00000000
        1369000	      1367	800001d8	bfe5	c.j	800001d0	
        1370000	      1368	800001d0	00002f17	auipc	x30,0x2	 x30=0x800021d0
        1372000	      1370	800001d4	e23f2823	sw	x3,-464(x30)	 x30:0x800021d0  x3:0x00000001 PA:0x80002000 store:0x00000001 load:0x00000000
        1374000	      1372	800001d8	bfe5	c.j	800001d0	
        1375000	      1373	800001d0	00002f17	auipc	x30,0x2	 x30=0x800021d0
        1377000	      1375	800001d4	e23f2823	sw	x3,-464(x30)	 x30:0x800021d0  x3:0x00000001 PA:0x80002000 store:0x00000001 load:0x00000000
        1379000	      1377	800001d8	bfe5	c.j	800001d0	
        1380000	      1378	800001d0	00002f17	auipc	x30,0x2	 x30=0x800021d0
        1382000	      1380	800001d4	e23f2823	sw	x3,-464(x30)	 x30:0x800021d0  x3:0x00000001 PA:0x80002000 store:0x00000001 load:0x00000000
        1384000	      1382	800001d8	bfe5	c.j	800001d0	
        1385000	      1383	800001d0	00002f17	auipc	x30,0x2	 x30=0x800021d0
        1387000	      1385	800001d4	e23f2823	sw	x3,-464(x30)	 x30:0x800021d0  x3:0x00000001 PA:0x80002000 store:0x00000001 load:0x00000000
        1389000	      1387	800001d8	bfe5	c.j	800001d0	
        1390000	      1388	800001d0	00002f17	auipc	x30,0x2	 x30=0x800021d0
        1392000	      1390	800001d4	e23f2823	sw	x3,-464(x30)	 x30:0x800021d0  x3:0x00000001 PA:0x80002000 store:0x00000001 load:0x00000000
        1394000	      1392	800001d8	bfe5	c.j	800001d0	
        1395000	      1393	800001d0	00002f17	auipc	x30,0x2	 x30=0x800021d0
        1397000	      1395	800001d4	e23f2823	sw	x3,-464(x30)	 x30:0x800021d0  x3:0x00000001 PA:0x80002000 store:0x00000001 load:0x00000000
        1399000	      1397	800001d8	bfe5	c.j	800001d0	
        1400000	      1398	800001d0	00002f17	auipc	x30,0x2	 x30=0x800021d0
        1402000	      1400	800001d4	e23f2823	sw	x3,-464(x30)	 x30:0x800021d0  x3:0x00000001 PA:0x80002000 store:0x00000001 load:0x00000000
        1404000	      1402	800001d8	bfe5	c.j	800001d0	
        1405000	      1403	800001d0	00002f17	auipc	x30,0x2	 x30=0x800021d0
        1407000	      1405	800001d4	e23f2823	sw	x3,-464(x30)	 x30:0x800021d0  x3:0x00000001 PA:0x80002000 store:0x00000001 load:0x00000000
        1409000	      1407	800001d8	bfe5	c.j	800001d0	
        1410000	      1408	800001d0	00002f17	auipc	x30,0x2	 x30=0x800021d0
        1412000	      1410	800001d4	e23f2823	sw	x3,-464(x30)	 x30:0x800021d0  x3:0x00000001 PA:0x80002000 store:0x00000001 load:0x00000000
        1414000	      1412	800001d8	bfe5	c.j	800001d0	
        1415000	      1413	800001d0	00002f17	auipc	x30,0x2	 x30=0x800021d0
        1417000	      1415	800001d4	e23f2823	sw	x3,-464(x30)	 x30:0x800021d0  x3:0x00000001 PA:0x80002000 store:0x00000001 load:0x00000000
        1419000	      1417	800001d8	bfe5	c.j	800001d0	
        1420000	      1418	800001d0	00002f17	auipc	x30,0x2	 x30=0x800021d0
        1422000	      1420	800001d4	e23f2823	sw	x3,-464(x30)	 x30:0x800021d0  x3:0x00000001 PA:0x80002000 store:0x00000001 load:0x00000000
        1424000	      1422	800001d8	bfe5	c.j	800001d0	
        1425000	      1423	800001d0	00002f17	auipc	x30,0x2	 x30=0x800021d0
        1427000	      1425	800001d4	e23f2823	sw	x3,-464(x30)	 x30:0x800021d0  x3:0x00000001 PA:0x80002000 store:0x00000001 load:0x00000000
        1429000	      1427	800001d8	bfe5	c.j	800001d0	
        1430000	      1428	800001d0	00002f17	auipc	x30,0x2	 x30=0x800021d0
        1432000	      1430	800001d4	e23f2823	sw	x3,-464(x30)	 x30:0x800021d0  x3:0x00000001 PA:0x80002000 store:0x00000001 load:0x00000000
        1434000	      1432	800001d8	bfe5	c.j	800001d0	
        1435000	      1433	800001d0	00002f17	auipc	x30,0x2	 x30=0x800021d0
        1437000	      1435	800001d4	e23f2823	sw	x3,-464(x30)	 x30:0x800021d0  x3:0x00000001 PA:0x80002000 store:0x00000001 load:0x00000000
        1439000	      1437	800001d8	bfe5	c.j	800001d0	
        1440000	      1438	800001d0	00002f17	auipc	x30,0x2	 x30=0x800021d0
        1442000	      1440	800001d4	e23f2823	sw	x3,-464(x30)	 x30:0x800021d0  x3:0x00000001 PA:0x80002000 store:0x00000001 load:0x00000000
        1444000	      1442	800001d8	bfe5	c.j	800001d0	
        1445000	      1443	800001d0	00002f17	auipc	x30,0x2	 x30=0x800021d0
        1447000	      1445	800001d4	e23f2823	sw	x3,-464(x30)	 x30:0x800021d0  x3:0x00000001 PA:0x80002000 store:0x00000001 load:0x00000000
        1449000	      1447	800001d8	bfe5	c.j	800001d0	
        1450000	      1448	800001d0	00002f17	auipc	x30,0x2	 x30=0x800021d0
        1452000	      1450	800001d4	e23f2823	sw	x3,-464(x30)	 x30:0x800021d0  x3:0x00000001 PA:0x80002000 store:0x00000001 load:0x00000000
        1454000	      1452	800001d8	bfe5	c.j	800001d0	
        1455000	      1453	800001d0	00002f17	auipc	x30,0x2	 x30=0x800021d0
        1457000	      1455	800001d4	e23f2823	sw	x3,-464(x30)	 x30:0x800021d0  x3:0x00000001 PA:0x80002000 store:0x00000001 load:0x00000000
        1459000	      1457	800001d8	bfe5	c.j	800001d0	
        1460000	      1458	800001d0	00002f17	auipc	x30,0x2	 x30=0x800021d0
        1462000	      1460	800001d4	e23f2823	sw	x3,-464(x30)	 x30:0x800021d0  x3:0x00000001 PA:0x80002000 store:0x00000001 load:0x00000000
        1464000	      1462	800001d8	bfe5	c.j	800001d0	
        1465000	      1463	800001d0	00002f17	auipc	x30,0x2	 x30=0x800021d0
        1467000	      1465	800001d4	e23f2823	sw	x3,-464(x30)	 x30:0x800021d0  x3:0x00000001 PA:0x80002000 store:0x00000001 load:0x00000000
        1469000	      1467	800001d8	bfe5	c.j	800001d0	
        1470000	      1468	800001d0	00002f17	auipc	x30,0x2	 x30=0x800021d0
        1472000	      1470	800001d4	e23f2823	sw	x3,-464(x30)	 x30:0x800021d0  x3:0x00000001 PA:0x80002000 store:0x00000001 load:0x00000000
        1474000	      1472	800001d8	bfe5	c.j	800001d0	
        1475000	      1473	800001d0	00002f17	auipc	x30,0x2	 x30=0x800021d0
        1477000	      1475	800001d4	e23f2823	sw	x3,-464(x30)	 x30:0x800021d0  x3:0x00000001 PA:0x80002000 store:0x00000001 load:0x00000000
        1479000	      1477	800001d8	bfe5	c.j	800001d0	
        1480000	      1478	800001d0	00002f17	auipc	x30,0x2	 x30=0x800021d0
        1482000	      1480	800001d4	e23f2823	sw	x3,-464(x30)	 x30:0x800021d0  x3:0x00000001 PA:0x80002000 store:0x00000001 load:0x00000000
        1484000	      1482	800001d8	bfe5	c.j	800001d0	
        1485000	      1483	800001d0	00002f17	auipc	x30,0x2	 x30=0x800021d0
        1487000	      1485	800001d4	e23f2823	sw	x3,-464(x30)	 x30:0x800021d0  x3:0x00000001 PA:0x80002000 store:0x00000001 load:0x00000000
        1489000	      1487	800001d8	bfe5	c.j	800001d0	
        1490000	      1488	800001d0	00002f17	auipc	x30,0x2	 x30=0x800021d0
        1492000	      1490	800001d4	e23f2823	sw	x3,-464(x30)	 x30:0x800021d0  x3:0x00000001 PA:0x80002000 store:0x00000001 load:0x00000000
        1494000	      1492	800001d8	bfe5	c.j	800001d0	
        1495000	      1493	800001d0	00002f17	auipc	x30,0x2	 x30=0x800021d0
        1497000	      1495	800001d4	e23f2823	sw	x3,-464(x30)	 x30:0x800021d0  x3:0x00000001 PA:0x80002000 store:0x00000001 load:0x00000000
        1499000	      1497	800001d8	bfe5	c.j	800001d0	
        1500000	      1498	800001d0	00002f17	auipc	x30,0x2	 x30=0x800021d0
        1502000	      1500	800001d4	e23f2823	sw	x3,-464(x30)	 x30:0x800021d0  x3:0x00000001 PA:0x80002000 store:0x00000001 load:0x00000000
        1504000	      1502	800001d8	bfe5	c.j	800001d0	
        1505000	      1503	800001d0	00002f17	auipc	x30,0x2	 x30=0x800021d0
        1507000	      1505	800001d4	e23f2823	sw	x3,-464(x30)	 x30:0x800021d0  x3:0x00000001 PA:0x80002000 store:0x00000001 load:0x00000000
        1509000	      1507	800001d8	bfe5	c.j	800001d0	
        1510000	      1508	800001d0	00002f17	auipc	x30,0x2	 x30=0x800021d0
        1512000	      1510	800001d4	e23f2823	sw	x3,-464(x30)	 x30:0x800021d0  x3:0x00000001 PA:0x80002000 store:0x00000001 load:0x00000000
        1514000	      1512	800001d8	bfe5	c.j	800001d0	
        1515000	      1513	800001d0	00002f17	auipc	x30,0x2	 x30=0x800021d0
        1517000	      1515	800001d4	e23f2823	sw	x3,-464(x30)	 x30:0x800021d0  x3:0x00000001 PA:0x80002000 store:0x00000001 load:0x00000000
        1519000	      1517	800001d8	bfe5	c.j	800001d0	
        1520000	      1518	800001d0	00002f17	auipc	x30,0x2	 x30=0x800021d0
        1522000	      1520	800001d4	e23f2823	sw	x3,-464(x30)	 x30:0x800021d0  x3:0x00000001 PA:0x80002000 store:0x00000001 load:0x00000000
        1524000	      1522	800001d8	bfe5	c.j	800001d0	
        1525000	      1523	800001d0	00002f17	auipc	x30,0x2	 x30=0x800021d0
        1527000	      1525	800001d4	e23f2823	sw	x3,-464(x30)	 x30:0x800021d0  x3:0x00000001 PA:0x80002000 store:0x00000001 load:0x00000000
        1529000	      1527	800001d8	bfe5	c.j	800001d0	
        1530000	      1528	800001d0	00002f17	auipc	x30,0x2	 x30=0x800021d0
        1532000	      1530	800001d4	e23f2823	sw	x3,-464(x30)	 x30:0x800021d0  x3:0x00000001 PA:0x80002000 store:0x00000001 load:0x00000000
        1534000	      1532	800001d8	bfe5	c.j	800001d0	
        1535000	      1533	800001d0	00002f17	auipc	x30,0x2	 x30=0x800021d0
        1537000	      1535	800001d4	e23f2823	sw	x3,-464(x30)	 x30:0x800021d0  x3:0x00000001 PA:0x80002000 store:0x00000001 load:0x00000000
        1539000	      1537	800001d8	bfe5	c.j	800001d0	
        1540000	      1538	800001d0	00002f17	auipc	x30,0x2	 x30=0x800021d0
        1542000	      1540	800001d4	e23f2823	sw	x3,-464(x30)	 x30:0x800021d0  x3:0x00000001 PA:0x80002000 store:0x00000001 load:0x00000000
        1544000	      1542	800001d8	bfe5	c.j	800001d0	
        1545000	      1543	800001d0	00002f17	auipc	x30,0x2	 x30=0x800021d0
        1547000	      1545	800001d4	e23f2823	sw	x3,-464(x30)	 x30:0x800021d0  x3:0x00000001 PA:0x80002000 store:0x00000001 load:0x00000000
        1549000	      1547	800001d8	bfe5	c.j	800001d0	
        1550000	      1548	800001d0	00002f17	auipc	x30,0x2	 x30=0x800021d0
        1552000	      1550	800001d4	e23f2823	sw	x3,-464(x30)	 x30:0x800021d0  x3:0x00000001 PA:0x80002000 store:0x00000001 load:0x00000000
        1554000	      1552	800001d8	bfe5	c.j	800001d0	
        1555000	      1553	800001d0	00002f17	auipc	x30,0x2	 x30=0x800021d0
        1557000	      1555	800001d4	e23f2823	sw	x3,-464(x30)	 x30:0x800021d0  x3:0x00000001 PA:0x80002000 store:0x00000001 load:0x00000000
        1559000	      1557	800001d8	bfe5	c.j	800001d0	
        1560000	      1558	800001d0	00002f17	auipc	x30,0x2	 x30=0x800021d0
        1562000	      1560	800001d4	e23f2823	sw	x3,-464(x30)	 x30:0x800021d0  x3:0x00000001 PA:0x80002000 store:0x00000001 load:0x00000000
        1564000	      1562	800001d8	bfe5	c.j	800001d0	
        1565000	      1563	800001d0	00002f17	auipc	x30,0x2	 x30=0x800021d0
        1567000	      1565	800001d4	e23f2823	sw	x3,-464(x30)	 x30:0x800021d0  x3:0x00000001 PA:0x80002000 store:0x00000001 load:0x00000000
        1569000	      1567	800001d8	bfe5	c.j	800001d0	
        1570000	      1568	800001d0	00002f17	auipc	x30,0x2	 x30=0x800021d0
        1572000	      1570	800001d4	e23f2823	sw	x3,-464(x30)	 x30:0x800021d0  x3:0x00000001 PA:0x80002000 store:0x00000001 load:0x00000000
        1574000	      1572	800001d8	bfe5	c.j	800001d0	
        1575000	      1573	800001d0	00002f17	auipc	x30,0x2	 x30=0x800021d0
        1577000	      1575	800001d4	e23f2823	sw	x3,-464(x30)	 x30:0x800021d0  x3:0x00000001 PA:0x80002000 store:0x00000001 load:0x00000000
        1579000	      1577	800001d8	bfe5	c.j	800001d0	
        1580000	      1578	800001d0	00002f17	auipc	x30,0x2	 x30=0x800021d0
        1582000	      1580	800001d4	e23f2823	sw	x3,-464(x30)	 x30:0x800021d0  x3:0x00000001 PA:0x80002000 store:0x00000001 load:0x00000000
        1584000	      1582	800001d8	bfe5	c.j	800001d0	
        1585000	      1583	800001d0	00002f17	auipc	x30,0x2	 x30=0x800021d0
        1587000	      1585	800001d4	e23f2823	sw	x3,-464(x30)	 x30:0x800021d0  x3:0x00000001 PA:0x80002000 store:0x00000001 load:0x00000000
        1589000	      1587	800001d8	bfe5	c.j	800001d0	
        1590000	      1588	800001d0	00002f17	auipc	x30,0x2	 x30=0x800021d0
        1592000	      1590	800001d4	e23f2823	sw	x3,-464(x30)	 x30:0x800021d0  x3:0x00000001 PA:0x80002000 store:0x00000001 load:0x00000000
        1594000	      1592	800001d8	bfe5	c.j	800001d0	
        1595000	      1593	800001d0	00002f17	auipc	x30,0x2	 x30=0x800021d0
        1597000	      1595	800001d4	e23f2823	sw	x3,-464(x30)	 x30:0x800021d0  x3:0x00000001 PA:0x80002000 store:0x00000001 load:0x00000000
        1599000	      1597	800001d8	bfe5	c.j	800001d0	
        1600000	      1598	800001d0	00002f17	auipc	x30,0x2	 x30=0x800021d0
        1602000	      1600	800001d4	e23f2823	sw	x3,-464(x30)	 x30:0x800021d0  x3:0x00000001 PA:0x80002000 store:0x00000001 load:0x00000000
        1604000	      1602	800001d8	bfe5	c.j	800001d0	
        1605000	      1603	800001d0	00002f17	auipc	x30,0x2	 x30=0x800021d0
        1607000	      1605	800001d4	e23f2823	sw	x3,-464(x30)	 x30:0x800021d0  x3:0x00000001 PA:0x80002000 store:0x00000001 load:0x00000000
        1609000	      1607	800001d8	bfe5	c.j	800001d0	
        1610000	      1608	800001d0	00002f17	auipc	x30,0x2	 x30=0x800021d0
        1612000	      1610	800001d4	e23f2823	sw	x3,-464(x30)	 x30:0x800021d0  x3:0x00000001 PA:0x80002000 store:0x00000001 load:0x00000000
        1614000	      1612	800001d8	bfe5	c.j	800001d0	
        1615000	      1613	800001d0	00002f17	auipc	x30,0x2	 x30=0x800021d0
        1617000	      1615	800001d4	e23f2823	sw	x3,-464(x30)	 x30:0x800021d0  x3:0x00000001 PA:0x80002000 store:0x00000001 load:0x00000000
        1619000	      1617	800001d8	bfe5	c.j	800001d0	
        1620000	      1618	800001d0	00002f17	auipc	x30,0x2	 x30=0x800021d0
        1622000	      1620	800001d4	e23f2823	sw	x3,-464(x30)	 x30:0x800021d0  x3:0x00000001 PA:0x80002000 store:0x00000001 load:0x00000000
        1624000	      1622	800001d8	bfe5	c.j	800001d0	
        1625000	      1623	800001d0	00002f17	auipc	x30,0x2	 x30=0x800021d0
        1627000	      1625	800001d4	e23f2823	sw	x3,-464(x30)	 x30:0x800021d0  x3:0x00000001 PA:0x80002000 store:0x00000001 load:0x00000000
        1629000	      1627	800001d8	bfe5	c.j	800001d0	
        1630000	      1628	800001d0	00002f17	auipc	x30,0x2	 x30=0x800021d0
        1632000	      1630	800001d4	e23f2823	sw	x3,-464(x30)	 x30:0x800021d0  x3:0x00000001 PA:0x80002000 store:0x00000001 load:0x00000000
        1634000	      1632	800001d8	bfe5	c.j	800001d0	
        1635000	      1633	800001d0	00002f17	auipc	x30,0x2	 x30=0x800021d0
        1637000	      1635	800001d4	e23f2823	sw	x3,-464(x30)	 x30:0x800021d0  x3:0x00000001 PA:0x80002000 store:0x00000001 load:0x00000000
        1639000	      1637	800001d8	bfe5	c.j	800001d0	
        1640000	      1638	800001d0	00002f17	auipc	x30,0x2	 x30=0x800021d0
        1642000	      1640	800001d4	e23f2823	sw	x3,-464(x30)	 x30:0x800021d0  x3:0x00000001 PA:0x80002000 store:0x00000001 load:0x00000000
        1644000	      1642	800001d8	bfe5	c.j	800001d0	
        1645000	      1643	800001d0	00002f17	auipc	x30,0x2	 x30=0x800021d0
        1647000	      1645	800001d4	e23f2823	sw	x3,-464(x30)	 x30:0x800021d0  x3:0x00000001 PA:0x80002000 store:0x00000001 load:0x00000000
        1649000	      1647	800001d8	bfe5	c.j	800001d0	
        1650000	      1648	800001d0	00002f17	auipc	x30,0x2	 x30=0x800021d0
        1652000	      1650	800001d4	e23f2823	sw	x3,-464(x30)	 x30:0x800021d0  x3:0x00000001 PA:0x80002000 store:0x00000001 load:0x00000000
        1654000	      1652	800001d8	bfe5	c.j	800001d0	
        1655000	      1653	800001d0	00002f17	auipc	x30,0x2	 x30=0x800021d0
        1657000	      1655	800001d4	e23f2823	sw	x3,-464(x30)	 x30:0x800021d0  x3:0x00000001 PA:0x80002000 store:0x00000001 load:0x00000000
        1659000	      1657	800001d8	bfe5	c.j	800001d0	
        1660000	      1658	800001d0	00002f17	auipc	x30,0x2	 x30=0x800021d0
        1662000	      1660	800001d4	e23f2823	sw	x3,-464(x30)	 x30:0x800021d0  x3:0x00000001 PA:0x80002000 store:0x00000001 load:0x00000000
        1664000	      1662	800001d8	bfe5	c.j	800001d0	
        1665000	      1663	800001d0	00002f17	auipc	x30,0x2	 x30=0x800021d0
        1667000	      1665	800001d4	e23f2823	sw	x3,-464(x30)	 x30:0x800021d0  x3:0x00000001 PA:0x80002000 store:0x00000001 load:0x00000000
        1669000	      1667	800001d8	bfe5	c.j	800001d0	
        1670000	      1668	800001d0	00002f17	auipc	x30,0x2	 x30=0x800021d0
        1672000	      1670	800001d4	e23f2823	sw	x3,-464(x30)	 x30:0x800021d0  x3:0x00000001 PA:0x80002000 store:0x00000001 load:0x00000000
        1674000	      1672	800001d8	bfe5	c.j	800001d0	
        1675000	      1673	800001d0	00002f17	auipc	x30,0x2	 x30=0x800021d0
        1677000	      1675	800001d4	e23f2823	sw	x3,-464(x30)	 x30:0x800021d0  x3:0x00000001 PA:0x80002000 store:0x00000001 load:0x00000000
        1679000	      1677	800001d8	bfe5	c.j	800001d0	
        1680000	      1678	800001d0	00002f17	auipc	x30,0x2	 x30=0x800021d0
        1682000	      1680	800001d4	e23f2823	sw	x3,-464(x30)	 x30:0x800021d0  x3:0x00000001 PA:0x80002000 store:0x00000001 load:0x00000000
        1684000	      1682	800001d8	bfe5	c.j	800001d0	
        1685000	      1683	800001d0	00002f17	auipc	x30,0x2	 x30=0x800021d0
        1687000	      1685	800001d4	e23f2823	sw	x3,-464(x30)	 x30:0x800021d0  x3:0x00000001 PA:0x80002000 store:0x00000001 load:0x00000000
        1689000	      1687	800001d8	bfe5	c.j	800001d0	
        1690000	      1688	800001d0	00002f17	auipc	x30,0x2	 x30=0x800021d0
        1692000	      1690	800001d4	e23f2823	sw	x3,-464(x30)	 x30:0x800021d0  x3:0x00000001 PA:0x80002000 store:0x00000001 load:0x00000000
        1694000	      1692	800001d8	bfe5	c.j	800001d0	
        1695000	      1693	800001d0	00002f17	auipc	x30,0x2	 x30=0x800021d0
        1697000	      1695	800001d4	e23f2823	sw	x3,-464(x30)	 x30:0x800021d0  x3:0x00000001 PA:0x80002000 store:0x00000001 load:0x00000000
        1699000	      1697	800001d8	bfe5	c.j	800001d0	
        1700000	      1698	800001d0	00002f17	auipc	x30,0x2	 x30=0x800021d0
        1702000	      1700	800001d4	e23f2823	sw	x3,-464(x30)	 x30:0x800021d0  x3:0x00000001 PA:0x80002000 store:0x00000001 load:0x00000000
        1704000	      1702	800001d8	bfe5	c.j	800001d0	
        1705000	      1703	800001d0	00002f17	auipc	x30,0x2	 x30=0x800021d0
        1707000	      1705	800001d4	e23f2823	sw	x3,-464(x30)	 x30:0x800021d0  x3:0x00000001 PA:0x80002000 store:0x00000001 load:0x00000000
        1709000	      1707	800001d8	bfe5	c.j	800001d0	
        1710000	      1708	800001d0	00002f17	auipc	x30,0x2	 x30=0x800021d0
        1712000	      1710	800001d4	e23f2823	sw	x3,-464(x30)	 x30:0x800021d0  x3:0x00000001 PA:0x80002000 store:0x00000001 load:0x00000000
        1714000	      1712	800001d8	bfe5	c.j	800001d0	
        1715000	      1713	800001d0	00002f17	auipc	x30,0x2	 x30=0x800021d0
        1717000	      1715	800001d4	e23f2823	sw	x3,-464(x30)	 x30:0x800021d0  x3:0x00000001 PA:0x80002000 store:0x00000001 load:0x00000000
        1719000	      1717	800001d8	bfe5	c.j	800001d0	
        1720000	      1718	800001d0	00002f17	auipc	x30,0x2	 x30=0x800021d0
        1722000	      1720	800001d4	e23f2823	sw	x3,-464(x30)	 x30:0x800021d0  x3:0x00000001 PA:0x80002000 store:0x00000001 load:0x00000000
        1724000	      1722	800001d8	bfe5	c.j	800001d0	
        1725000	      1723	800001d0	00002f17	auipc	x30,0x2	 x30=0x800021d0
        1727000	      1725	800001d4	e23f2823	sw	x3,-464(x30)	 x30:0x800021d0  x3:0x00000001 PA:0x80002000 store:0x00000001 load:0x00000000
        1729000	      1727	800001d8	bfe5	c.j	800001d0	
        1730000	      1728	800001d0	00002f17	auipc	x30,0x2	 x30=0x800021d0
        1732000	      1730	800001d4	e23f2823	sw	x3,-464(x30)	 x30:0x800021d0  x3:0x00000001 PA:0x80002000 store:0x00000001 load:0x00000000
        1734000	      1732	800001d8	bfe5	c.j	800001d0	
        1735000	      1733	800001d0	00002f17	auipc	x30,0x2	 x30=0x800021d0
        1737000	      1735	800001d4	e23f2823	sw	x3,-464(x30)	 x30:0x800021d0  x3:0x00000001 PA:0x80002000 store:0x00000001 load:0x00000000
        1739000	      1737	800001d8	bfe5	c.j	800001d0	
        1740000	      1738	800001d0	00002f17	auipc	x30,0x2	 x30=0x800021d0
        1742000	      1740	800001d4	e23f2823	sw	x3,-464(x30)	 x30:0x800021d0  x3:0x00000001 PA:0x80002000 store:0x00000001 load:0x00000000
        1744000	      1742	800001d8	bfe5	c.j	800001d0	
        1745000	      1743	800001d0	00002f17	auipc	x30,0x2	 x30=0x800021d0
        1747000	      1745	800001d4	e23f2823	sw	x3,-464(x30)	 x30:0x800021d0  x3:0x00000001 PA:0x80002000 store:0x00000001 load:0x00000000
        1749000	      1747	800001d8	bfe5	c.j	800001d0	
        1750000	      1748	800001d0	00002f17	auipc	x30,0x2	 x30=0x800021d0
        1752000	      1750	800001d4	e23f2823	sw	x3,-464(x30)	 x30:0x800021d0  x3:0x00000001 PA:0x80002000 store:0x00000001 load:0x00000000
        1754000	      1752	800001d8	bfe5	c.j	800001d0	
        1755000	      1753	800001d0	00002f17	auipc	x30,0x2	 x30=0x800021d0
        1757000	      1755	800001d4	e23f2823	sw	x3,-464(x30)	 x30:0x800021d0  x3:0x00000001 PA:0x80002000 store:0x00000001 load:0x00000000
        1759000	      1757	800001d8	bfe5	c.j	800001d0	
        1760000	      1758	800001d0	00002f17	auipc	x30,0x2	 x30=0x800021d0
        1762000	      1760	800001d4	e23f2823	sw	x3,-464(x30)	 x30:0x800021d0  x3:0x00000001 PA:0x80002000 store:0x00000001 load:0x00000000
        1764000	      1762	800001d8	bfe5	c.j	800001d0	
        1765000	      1763	800001d0	00002f17	auipc	x30,0x2	 x30=0x800021d0
        1767000	      1765	800001d4	e23f2823	sw	x3,-464(x30)	 x30:0x800021d0  x3:0x00000001 PA:0x80002000 store:0x00000001 load:0x00000000
        1769000	      1767	800001d8	bfe5	c.j	800001d0	
        1770000	      1768	800001d0	00002f17	auipc	x30,0x2	 x30=0x800021d0
        1772000	      1770	800001d4	e23f2823	sw	x3,-464(x30)	 x30:0x800021d0  x3:0x00000001 PA:0x80002000 store:0x00000001 load:0x00000000
        1774000	      1772	800001d8	bfe5	c.j	800001d0	
        1775000	      1773	800001d0	00002f17	auipc	x30,0x2	 x30=0x800021d0
        1777000	      1775	800001d4	e23f2823	sw	x3,-464(x30)	 x30:0x800021d0  x3:0x00000001 PA:0x80002000 store:0x00000001 load:0x00000000
        1779000	      1777	800001d8	bfe5	c.j	800001d0	
        1780000	      1778	800001d0	00002f17	auipc	x30,0x2	 x30=0x800021d0
        1782000	      1780	800001d4	e23f2823	sw	x3,-464(x30)	 x30:0x800021d0  x3:0x00000001 PA:0x80002000 store:0x00000001 load:0x00000000
        1784000	      1782	800001d8	bfe5	c.j	800001d0	
        1785000	      1783	800001d0	00002f17	auipc	x30,0x2	 x30=0x800021d0
        1787000	      1785	800001d4	e23f2823	sw	x3,-464(x30)	 x30:0x800021d0  x3:0x00000001 PA:0x80002000 store:0x00000001 load:0x00000000
        1789000	      1787	800001d8	bfe5	c.j	800001d0	
        1790000	      1788	800001d0	00002f17	auipc	x30,0x2	 x30=0x800021d0
        1792000	      1790	800001d4	e23f2823	sw	x3,-464(x30)	 x30:0x800021d0  x3:0x00000001 PA:0x80002000 store:0x00000001 load:0x00000000
        1794000	      1792	800001d8	bfe5	c.j	800001d0	
        1795000	      1793	800001d0	00002f17	auipc	x30,0x2	 x30=0x800021d0
        1797000	      1795	800001d4	e23f2823	sw	x3,-464(x30)	 x30:0x800021d0  x3:0x00000001 PA:0x80002000 store:0x00000001 load:0x00000000
        1799000	      1797	800001d8	bfe5	c.j	800001d0	
        1800000	      1798	800001d0	00002f17	auipc	x30,0x2	 x30=0x800021d0
        1802000	      1800	800001d4	e23f2823	sw	x3,-464(x30)	 x30:0x800021d0  x3:0x00000001 PA:0x80002000 store:0x00000001 load:0x00000000
        1804000	      1802	800001d8	bfe5	c.j	800001d0	
        1805000	      1803	800001d0	00002f17	auipc	x30,0x2	 x30=0x800021d0
        1807000	      1805	800001d4	e23f2823	sw	x3,-464(x30)	 x30:0x800021d0  x3:0x00000001 PA:0x80002000 store:0x00000001 load:0x00000000
        1809000	      1807	800001d8	bfe5	c.j	800001d0	
        1810000	      1808	800001d0	00002f17	auipc	x30,0x2	 x30=0x800021d0
        1812000	      1810	800001d4	e23f2823	sw	x3,-464(x30)	 x30:0x800021d0  x3:0x00000001 PA:0x80002000 store:0x00000001 load:0x00000000
        1814000	      1812	800001d8	bfe5	c.j	800001d0	
        1815000	      1813	800001d0	00002f17	auipc	x30,0x2	 x30=0x800021d0
        1817000	      1815	800001d4	e23f2823	sw	x3,-464(x30)	 x30:0x800021d0  x3:0x00000001 PA:0x80002000 store:0x00000001 load:0x00000000
        1819000	      1817	800001d8	bfe5	c.j	800001d0	
        1820000	      1818	800001d0	00002f17	auipc	x30,0x2	 x30=0x800021d0
        1822000	      1820	800001d4	e23f2823	sw	x3,-464(x30)	 x30:0x800021d0  x3:0x00000001 PA:0x80002000 store:0x00000001 load:0x00000000
        1824000	      1822	800001d8	bfe5	c.j	800001d0	
        1825000	      1823	800001d0	00002f17	auipc	x30,0x2	 x30=0x800021d0
        1827000	      1825	800001d4	e23f2823	sw	x3,-464(x30)	 x30:0x800021d0  x3:0x00000001 PA:0x80002000 store:0x00000001 load:0x00000000
        1829000	      1827	800001d8	bfe5	c.j	800001d0	
        1830000	      1828	800001d0	00002f17	auipc	x30,0x2	 x30=0x800021d0
        1832000	      1830	800001d4	e23f2823	sw	x3,-464(x30)	 x30:0x800021d0  x3:0x00000001 PA:0x80002000 store:0x00000001 load:0x00000000
        1834000	      1832	800001d8	bfe5	c.j	800001d0	
        1835000	      1833	800001d0	00002f17	auipc	x30,0x2	 x30=0x800021d0
        1837000	      1835	800001d4	e23f2823	sw	x3,-464(x30)	 x30:0x800021d0  x3:0x00000001 PA:0x80002000 store:0x00000001 load:0x00000000
        1839000	      1837	800001d8	bfe5	c.j	800001d0	
        1840000	      1838	800001d0	00002f17	auipc	x30,0x2	 x30=0x800021d0
        1842000	      1840	800001d4	e23f2823	sw	x3,-464(x30)	 x30:0x800021d0  x3:0x00000001 PA:0x80002000 store:0x00000001 load:0x00000000
        1844000	      1842	800001d8	bfe5	c.j	800001d0	
        1845000	      1843	800001d0	00002f17	auipc	x30,0x2	 x30=0x800021d0
        1847000	      1845	800001d4	e23f2823	sw	x3,-464(x30)	 x30:0x800021d0  x3:0x00000001 PA:0x80002000 store:0x00000001 load:0x00000000
        1849000	      1847	800001d8	bfe5	c.j	800001d0	
        1850000	      1848	800001d0	00002f17	auipc	x30,0x2	 x30=0x800021d0
        1852000	      1850	800001d4	e23f2823	sw	x3,-464(x30)	 x30:0x800021d0  x3:0x00000001 PA:0x80002000 store:0x00000001 load:0x00000000
        1854000	      1852	800001d8	bfe5	c.j	800001d0	
        1855000	      1853	800001d0	00002f17	auipc	x30,0x2	 x30=0x800021d0
        1857000	      1855	800001d4	e23f2823	sw	x3,-464(x30)	 x30:0x800021d0  x3:0x00000001 PA:0x80002000 store:0x00000001 load:0x00000000
        1859000	      1857	800001d8	bfe5	c.j	800001d0	
        1860000	      1858	800001d0	00002f17	auipc	x30,0x2	 x30=0x800021d0
        1862000	      1860	800001d4	e23f2823	sw	x3,-464(x30)	 x30:0x800021d0  x3:0x00000001 PA:0x80002000 store:0x00000001 load:0x00000000
        1864000	      1862	800001d8	bfe5	c.j	800001d0	
        1865000	      1863	800001d0	00002f17	auipc	x30,0x2	 x30=0x800021d0
        1867000	      1865	800001d4	e23f2823	sw	x3,-464(x30)	 x30:0x800021d0  x3:0x00000001 PA:0x80002000 store:0x00000001 load:0x00000000
        1869000	      1867	800001d8	bfe5	c.j	800001d0	
        1870000	      1868	800001d0	00002f17	auipc	x30,0x2	 x30=0x800021d0
        1872000	      1870	800001d4	e23f2823	sw	x3,-464(x30)	 x30:0x800021d0  x3:0x00000001 PA:0x80002000 store:0x00000001 load:0x00000000
        1874000	      1872	800001d8	bfe5	c.j	800001d0	
        1875000	      1873	800001d0	00002f17	auipc	x30,0x2	 x30=0x800021d0
        1877000	      1875	800001d4	e23f2823	sw	x3,-464(x30)	 x30:0x800021d0  x3:0x00000001 PA:0x80002000 store:0x00000001 load:0x00000000
        1879000	      1877	800001d8	bfe5	c.j	800001d0	
        1880000	      1878	800001d0	00002f17	auipc	x30,0x2	 x30=0x800021d0
        1882000	      1880	800001d4	e23f2823	sw	x3,-464(x30)	 x30:0x800021d0  x3:0x00000001 PA:0x80002000 store:0x00000001 load:0x00000000
        1884000	      1882	800001d8	bfe5	c.j	800001d0	
        1885000	      1883	800001d0	00002f17	auipc	x30,0x2	 x30=0x800021d0
        1887000	      1885	800001d4	e23f2823	sw	x3,-464(x30)	 x30:0x800021d0  x3:0x00000001 PA:0x80002000 store:0x00000001 load:0x00000000
        1889000	      1887	800001d8	bfe5	c.j	800001d0	
        1890000	      1888	800001d0	00002f17	auipc	x30,0x2	 x30=0x800021d0
        1892000	      1890	800001d4	e23f2823	sw	x3,-464(x30)	 x30:0x800021d0  x3:0x00000001 PA:0x80002000 store:0x00000001 load:0x00000000
        1894000	      1892	800001d8	bfe5	c.j	800001d0	
        1895000	      1893	800001d0	00002f17	auipc	x30,0x2	 x30=0x800021d0
        1897000	      1895	800001d4	e23f2823	sw	x3,-464(x30)	 x30:0x800021d0  x3:0x00000001 PA:0x80002000 store:0x00000001 load:0x00000000
        1899000	      1897	800001d8	bfe5	c.j	800001d0	
        1900000	      1898	800001d0	00002f17	auipc	x30,0x2	 x30=0x800021d0
        1902000	      1900	800001d4	e23f2823	sw	x3,-464(x30)	 x30:0x800021d0  x3:0x00000001 PA:0x80002000 store:0x00000001 load:0x00000000
        1904000	      1902	800001d8	bfe5	c.j	800001d0	
        1905000	      1903	800001d0	00002f17	auipc	x30,0x2	 x30=0x800021d0
        1907000	      1905	800001d4	e23f2823	sw	x3,-464(x30)	 x30:0x800021d0  x3:0x00000001 PA:0x80002000 store:0x00000001 load:0x00000000
        1909000	      1907	800001d8	bfe5	c.j	800001d0	
        1910000	      1908	800001d0	00002f17	auipc	x30,0x2	 x30=0x800021d0
        1912000	      1910	800001d4	e23f2823	sw	x3,-464(x30)	 x30:0x800021d0  x3:0x00000001 PA:0x80002000 store:0x00000001 load:0x00000000
        1914000	      1912	800001d8	bfe5	c.j	800001d0	
        1915000	      1913	800001d0	00002f17	auipc	x30,0x2	 x30=0x800021d0
        1917000	      1915	800001d4	e23f2823	sw	x3,-464(x30)	 x30:0x800021d0  x3:0x00000001 PA:0x80002000 store:0x00000001 load:0x00000000
        1919000	      1917	800001d8	bfe5	c.j	800001d0	
        1920000	      1918	800001d0	00002f17	auipc	x30,0x2	 x30=0x800021d0
        1922000	      1920	800001d4	e23f2823	sw	x3,-464(x30)	 x30:0x800021d0  x3:0x00000001 PA:0x80002000 store:0x00000001 load:0x00000000
        1924000	      1922	800001d8	bfe5	c.j	800001d0	
        1925000	      1923	800001d0	00002f17	auipc	x30,0x2	 x30=0x800021d0
        1927000	      1925	800001d4	e23f2823	sw	x3,-464(x30)	 x30:0x800021d0  x3:0x00000001 PA:0x80002000 store:0x00000001 load:0x00000000
        1929000	      1927	800001d8	bfe5	c.j	800001d0	
        1930000	      1928	800001d0	00002f17	auipc	x30,0x2	 x30=0x800021d0
        1932000	      1930	800001d4	e23f2823	sw	x3,-464(x30)	 x30:0x800021d0  x3:0x00000001 PA:0x80002000 store:0x00000001 load:0x00000000
        1934000	      1932	800001d8	bfe5	c.j	800001d0	
        1935000	      1933	800001d0	00002f17	auipc	x30,0x2	 x30=0x800021d0
        1937000	      1935	800001d4	e23f2823	sw	x3,-464(x30)	 x30:0x800021d0  x3:0x00000001 PA:0x80002000 store:0x00000001 load:0x00000000
        1939000	      1937	800001d8	bfe5	c.j	800001d0	
        1940000	      1938	800001d0	00002f17	auipc	x30,0x2	 x30=0x800021d0
        1942000	      1940	800001d4	e23f2823	sw	x3,-464(x30)	 x30:0x800021d0  x3:0x00000001 PA:0x80002000 store:0x00000001 load:0x00000000
        1944000	      1942	800001d8	bfe5	c.j	800001d0	
        1945000	      1943	800001d0	00002f17	auipc	x30,0x2	 x30=0x800021d0
        1947000	      1945	800001d4	e23f2823	sw	x3,-464(x30)	 x30:0x800021d0  x3:0x00000001 PA:0x80002000 store:0x00000001 load:0x00000000
        1949000	      1947	800001d8	bfe5	c.j	800001d0	
        1950000	      1948	800001d0	00002f17	auipc	x30,0x2	 x30=0x800021d0
        1952000	      1950	800001d4	e23f2823	sw	x3,-464(x30)	 x30:0x800021d0  x3:0x00000001 PA:0x80002000 store:0x00000001 load:0x00000000
        1954000	      1952	800001d8	bfe5	c.j	800001d0	
        1955000	      1953	800001d0	00002f17	auipc	x30,0x2	 x30=0x800021d0
        1957000	      1955	800001d4	e23f2823	sw	x3,-464(x30)	 x30:0x800021d0  x3:0x00000001 PA:0x80002000 store:0x00000001 load:0x00000000
        1959000	      1957	800001d8	bfe5	c.j	800001d0	
        1960000	      1958	800001d0	00002f17	auipc	x30,0x2	 x30=0x800021d0
        1962000	      1960	800001d4	e23f2823	sw	x3,-464(x30)	 x30:0x800021d0  x3:0x00000001 PA:0x80002000 store:0x00000001 load:0x00000000
        1964000	      1962	800001d8	bfe5	c.j	800001d0	
        1965000	      1963	800001d0	00002f17	auipc	x30,0x2	 x30=0x800021d0
        1967000	      1965	800001d4	e23f2823	sw	x3,-464(x30)	 x30:0x800021d0  x3:0x00000001 PA:0x80002000 store:0x00000001 load:0x00000000
        1969000	      1967	800001d8	bfe5	c.j	800001d0	
        1970000	      1968	800001d0	00002f17	auipc	x30,0x2	 x30=0x800021d0
        1972000	      1970	800001d4	e23f2823	sw	x3,-464(x30)	 x30:0x800021d0  x3:0x00000001 PA:0x80002000 store:0x00000001 load:0x00000000
        1974000	      1972	800001d8	bfe5	c.j	800001d0	
        1975000	      1973	800001d0	00002f17	auipc	x30,0x2	 x30=0x800021d0
        1977000	      1975	800001d4	e23f2823	sw	x3,-464(x30)	 x30:0x800021d0  x3:0x00000001 PA:0x80002000 store:0x00000001 load:0x00000000
        1979000	      1977	800001d8	bfe5	c.j	800001d0	
        1980000	      1978	800001d0	00002f17	auipc	x30,0x2	 x30=0x800021d0
        1982000	      1980	800001d4	e23f2823	sw	x3,-464(x30)	 x30:0x800021d0  x3:0x00000001 PA:0x80002000 store:0x00000001 load:0x00000000
        1984000	      1982	800001d8	bfe5	c.j	800001d0	
        1985000	      1983	800001d0	00002f17	auipc	x30,0x2	 x30=0x800021d0
        1987000	      1985	800001d4	e23f2823	sw	x3,-464(x30)	 x30:0x800021d0  x3:0x00000001 PA:0x80002000 store:0x00000001 load:0x00000000
        1989000	      1987	800001d8	bfe5	c.j	800001d0	
        1990000	      1988	800001d0	00002f17	auipc	x30,0x2	 x30=0x800021d0
        1992000	      1990	800001d4	e23f2823	sw	x3,-464(x30)	 x30:0x800021d0  x3:0x00000001 PA:0x80002000 store:0x00000001 load:0x00000000
        1994000	      1992	800001d8	bfe5	c.j	800001d0	
        1995000	      1993	800001d0	00002f17	auipc	x30,0x2	 x30=0x800021d0
        1997000	      1995	800001d4	e23f2823	sw	x3,-464(x30)	 x30:0x800021d0  x3:0x00000001 PA:0x80002000 store:0x00000001 load:0x00000000
        1999000	      1997	800001d8	bfe5	c.j	800001d0	
        2000000	      1998	800001d0	00002f17	auipc	x30,0x2	 x30=0x800021d0
        2002000	      2000	800001d4	e23f2823	sw	x3,-464(x30)	 x30:0x800021d0  x3:0x00000001 PA:0x80002000 store:0x00000001 load:0x00000000
        2004000	      2002	800001d8	bfe5	c.j	800001d0	
        2005000	      2003	800001d0	00002f17	auipc	x30,0x2	 x30=0x800021d0
        2007000	      2005	800001d4	e23f2823	sw	x3,-464(x30)	 x30:0x800021d0  x3:0x00000001 PA:0x80002000 store:0x00000001 load:0x00000000
        2009000	      2007	800001d8	bfe5	c.j	800001d0	
        2010000	      2008	800001d0	00002f17	auipc	x30,0x2	 x30=0x800021d0
        2012000	      2010	800001d4	e23f2823	sw	x3,-464(x30)	 x30:0x800021d0  x3:0x00000001 PA:0x80002000 store:0x00000001 load:0x00000000
        2014000	      2012	800001d8	bfe5	c.j	800001d0	
        2015000	      2013	800001d0	00002f17	auipc	x30,0x2	 x30=0x800021d0
        2017000	      2015	800001d4	e23f2823	sw	x3,-464(x30)	 x30:0x800021d0  x3:0x00000001 PA:0x80002000 store:0x00000001 load:0x00000000
        2019000	      2017	800001d8	bfe5	c.j	800001d0	
        2020000	      2018	800001d0	00002f17	auipc	x30,0x2	 x30=0x800021d0
        2022000	      2020	800001d4	e23f2823	sw	x3,-464(x30)	 x30:0x800021d0  x3:0x00000001 PA:0x80002000 store:0x00000001 load:0x00000000
        2024000	      2022	800001d8	bfe5	c.j	800001d0	
        2025000	      2023	800001d0	00002f17	auipc	x30,0x2	 x30=0x800021d0
        2027000	      2025	800001d4	e23f2823	sw	x3,-464(x30)	 x30:0x800021d0  x3:0x00000001 PA:0x80002000 store:0x00000001 load:0x00000000
        2029000	      2027	800001d8	bfe5	c.j	800001d0	
        2030000	      2028	800001d0	00002f17	auipc	x30,0x2	 x30=0x800021d0
        2032000	      2030	800001d4	e23f2823	sw	x3,-464(x30)	 x30:0x800021d0  x3:0x00000001 PA:0x80002000 store:0x00000001 load:0x00000000
        2034000	      2032	800001d8	bfe5	c.j	800001d0	
        2035000	      2033	800001d0	00002f17	auipc	x30,0x2	 x30=0x800021d0
        2037000	      2035	800001d4	e23f2823	sw	x3,-464(x30)	 x30:0x800021d0  x3:0x00000001 PA:0x80002000 store:0x00000001 load:0x00000000
        2039000	      2037	800001d8	bfe5	c.j	800001d0	
        2040000	      2038	800001d0	00002f17	auipc	x30,0x2	 x30=0x800021d0
        2042000	      2040	800001d4	e23f2823	sw	x3,-464(x30)	 x30:0x800021d0  x3:0x00000001 PA:0x80002000 store:0x00000001 load:0x00000000
        2044000	      2042	800001d8	bfe5	c.j	800001d0	
        2045000	      2043	800001d0	00002f17	auipc	x30,0x2	 x30=0x800021d0
        2047000	      2045	800001d4	e23f2823	sw	x3,-464(x30)	 x30:0x800021d0  x3:0x00000001 PA:0x80002000 store:0x00000001 load:0x00000000
        2049000	      2047	800001d8	bfe5	c.j	800001d0	
        2050000	      2048	800001d0	00002f17	auipc	x30,0x2	 x30=0x800021d0
        2052000	      2050	800001d4	e23f2823	sw	x3,-464(x30)	 x30:0x800021d0  x3:0x00000001 PA:0x80002000 store:0x00000001 load:0x00000000
        2054000	      2052	800001d8	bfe5	c.j	800001d0	
        2055000	      2053	800001d0	00002f17	auipc	x30,0x2	 x30=0x800021d0
        2057000	      2055	800001d4	e23f2823	sw	x3,-464(x30)	 x30:0x800021d0  x3:0x00000001 PA:0x80002000 store:0x00000001 load:0x00000000
        2059000	      2057	800001d8	bfe5	c.j	800001d0	
        2060000	      2058	800001d0	00002f17	auipc	x30,0x2	 x30=0x800021d0
        2062000	      2060	800001d4	e23f2823	sw	x3,-464(x30)	 x30:0x800021d0  x3:0x00000001 PA:0x80002000 store:0x00000001 load:0x00000000
        2064000	      2062	800001d8	bfe5	c.j	800001d0	
        2065000	      2063	800001d0	00002f17	auipc	x30,0x2	 x30=0x800021d0
        2067000	      2065	800001d4	e23f2823	sw	x3,-464(x30)	 x30:0x800021d0  x3:0x00000001 PA:0x80002000 store:0x00000001 load:0x00000000
        2069000	      2067	800001d8	bfe5	c.j	800001d0	
        2070000	      2068	800001d0	00002f17	auipc	x30,0x2	 x30=0x800021d0
        2072000	      2070	800001d4	e23f2823	sw	x3,-464(x30)	 x30:0x800021d0  x3:0x00000001 PA:0x80002000 store:0x00000001 load:0x00000000
        2074000	      2072	800001d8	bfe5	c.j	800001d0	
        2075000	      2073	800001d0	00002f17	auipc	x30,0x2	 x30=0x800021d0
        2077000	      2075	800001d4	e23f2823	sw	x3,-464(x30)	 x30:0x800021d0  x3:0x00000001 PA:0x80002000 store:0x00000001 load:0x00000000
        2079000	      2077	800001d8	bfe5	c.j	800001d0	
        2080000	      2078	800001d0	00002f17	auipc	x30,0x2	 x30=0x800021d0
        2082000	      2080	800001d4	e23f2823	sw	x3,-464(x30)	 x30:0x800021d0  x3:0x00000001 PA:0x80002000 store:0x00000001 load:0x00000000
        2084000	      2082	800001d8	bfe5	c.j	800001d0	
        2085000	      2083	800001d0	00002f17	auipc	x30,0x2	 x30=0x800021d0
        2087000	      2085	800001d4	e23f2823	sw	x3,-464(x30)	 x30:0x800021d0  x3:0x00000001 PA:0x80002000 store:0x00000001 load:0x00000000
        2089000	      2087	800001d8	bfe5	c.j	800001d0	
        2090000	      2088	800001d0	00002f17	auipc	x30,0x2	 x30=0x800021d0
        2092000	      2090	800001d4	e23f2823	sw	x3,-464(x30)	 x30:0x800021d0  x3:0x00000001 PA:0x80002000 store:0x00000001 load:0x00000000
        2094000	      2092	800001d8	bfe5	c.j	800001d0	
        2095000	      2093	800001d0	00002f17	auipc	x30,0x2	 x30=0x800021d0
        2097000	      2095	800001d4	e23f2823	sw	x3,-464(x30)	 x30:0x800021d0  x3:0x00000001 PA:0x80002000 store:0x00000001 load:0x00000000
        2099000	      2097	800001d8	bfe5	c.j	800001d0	
        2100000	      2098	800001d0	00002f17	auipc	x30,0x2	 x30=0x800021d0
        2102000	      2100	800001d4	e23f2823	sw	x3,-464(x30)	 x30:0x800021d0  x3:0x00000001 PA:0x80002000 store:0x00000001 load:0x00000000
        2104000	      2102	800001d8	bfe5	c.j	800001d0	
        2105000	      2103	800001d0	00002f17	auipc	x30,0x2	 x30=0x800021d0
        2107000	      2105	800001d4	e23f2823	sw	x3,-464(x30)	 x30:0x800021d0  x3:0x00000001 PA:0x80002000 store:0x00000001 load:0x00000000
        2109000	      2107	800001d8	bfe5	c.j	800001d0	
        2110000	      2108	800001d0	00002f17	auipc	x30,0x2	 x30=0x800021d0
        2112000	      2110	800001d4	e23f2823	sw	x3,-464(x30)	 x30:0x800021d0  x3:0x00000001 PA:0x80002000 store:0x00000001 load:0x00000000
        2114000	      2112	800001d8	bfe5	c.j	800001d0	
        2115000	      2113	800001d0	00002f17	auipc	x30,0x2	 x30=0x800021d0
        2117000	      2115	800001d4	e23f2823	sw	x3,-464(x30)	 x30:0x800021d0  x3:0x00000001 PA:0x80002000 store:0x00000001 load:0x00000000
        2119000	      2117	800001d8	bfe5	c.j	800001d0	
        2120000	      2118	800001d0	00002f17	auipc	x30,0x2	 x30=0x800021d0
        2122000	      2120	800001d4	e23f2823	sw	x3,-464(x30)	 x30:0x800021d0  x3:0x00000001 PA:0x80002000 store:0x00000001 load:0x00000000
        2124000	      2122	800001d8	bfe5	c.j	800001d0	
        2125000	      2123	800001d0	00002f17	auipc	x30,0x2	 x30=0x800021d0
        2127000	      2125	800001d4	e23f2823	sw	x3,-464(x30)	 x30:0x800021d0  x3:0x00000001 PA:0x80002000 store:0x00000001 load:0x00000000
        2129000	      2127	800001d8	bfe5	c.j	800001d0	
        2130000	      2128	800001d0	00002f17	auipc	x30,0x2	 x30=0x800021d0
        2132000	      2130	800001d4	e23f2823	sw	x3,-464(x30)	 x30:0x800021d0  x3:0x00000001 PA:0x80002000 store:0x00000001 load:0x00000000
        2134000	      2132	800001d8	bfe5	c.j	800001d0	
        2135000	      2133	800001d0	00002f17	auipc	x30,0x2	 x30=0x800021d0
        2137000	      2135	800001d4	e23f2823	sw	x3,-464(x30)	 x30:0x800021d0  x3:0x00000001 PA:0x80002000 store:0x00000001 load:0x00000000
        2139000	      2137	800001d8	bfe5	c.j	800001d0	
        2140000	      2138	800001d0	00002f17	auipc	x30,0x2	 x30=0x800021d0
        2142000	      2140	800001d4	e23f2823	sw	x3,-464(x30)	 x30:0x800021d0  x3:0x00000001 PA:0x80002000 store:0x00000001 load:0x00000000
        2144000	      2142	800001d8	bfe5	c.j	800001d0	
        2145000	      2143	800001d0	00002f17	auipc	x30,0x2	 x30=0x800021d0
        2147000	      2145	800001d4	e23f2823	sw	x3,-464(x30)	 x30:0x800021d0  x3:0x00000001 PA:0x80002000 store:0x00000001 load:0x00000000
        2149000	      2147	800001d8	bfe5	c.j	800001d0	
        2150000	      2148	800001d0	00002f17	auipc	x30,0x2	 x30=0x800021d0
        2152000	      2150	800001d4	e23f2823	sw	x3,-464(x30)	 x30:0x800021d0  x3:0x00000001 PA:0x80002000 store:0x00000001 load:0x00000000
        2154000	      2152	800001d8	bfe5	c.j	800001d0	
        2155000	      2153	800001d0	00002f17	auipc	x30,0x2	 x30=0x800021d0
        2157000	      2155	800001d4	e23f2823	sw	x3,-464(x30)	 x30:0x800021d0  x3:0x00000001 PA:0x80002000 store:0x00000001 load:0x00000000
        2159000	      2157	800001d8	bfe5	c.j	800001d0	
        2160000	      2158	800001d0	00002f17	auipc	x30,0x2	 x30=0x800021d0
        2162000	      2160	800001d4	e23f2823	sw	x3,-464(x30)	 x30:0x800021d0  x3:0x00000001 PA:0x80002000 store:0x00000001 load:0x00000000
        2164000	      2162	800001d8	bfe5	c.j	800001d0	
        2165000	      2163	800001d0	00002f17	auipc	x30,0x2	 x30=0x800021d0
        2167000	      2165	800001d4	e23f2823	sw	x3,-464(x30)	 x30:0x800021d0  x3:0x00000001 PA:0x80002000 store:0x00000001 load:0x00000000
        2169000	      2167	800001d8	bfe5	c.j	800001d0	
        2170000	      2168	800001d0	00002f17	auipc	x30,0x2	 x30=0x800021d0
        2172000	      2170	800001d4	e23f2823	sw	x3,-464(x30)	 x30:0x800021d0  x3:0x00000001 PA:0x80002000 store:0x00000001 load:0x00000000
        2174000	      2172	800001d8	bfe5	c.j	800001d0	
        2175000	      2173	800001d0	00002f17	auipc	x30,0x2	 x30=0x800021d0
        2177000	      2175	800001d4	e23f2823	sw	x3,-464(x30)	 x30:0x800021d0  x3:0x00000001 PA:0x80002000 store:0x00000001 load:0x00000000
        2179000	      2177	800001d8	bfe5	c.j	800001d0	
        2180000	      2178	800001d0	00002f17	auipc	x30,0x2	 x30=0x800021d0
        2182000	      2180	800001d4	e23f2823	sw	x3,-464(x30)	 x30:0x800021d0  x3:0x00000001 PA:0x80002000 store:0x00000001 load:0x00000000
        2184000	      2182	800001d8	bfe5	c.j	800001d0	
        2185000	      2183	800001d0	00002f17	auipc	x30,0x2	 x30=0x800021d0
        2187000	      2185	800001d4	e23f2823	sw	x3,-464(x30)	 x30:0x800021d0  x3:0x00000001 PA:0x80002000 store:0x00000001 load:0x00000000
        2189000	      2187	800001d8	bfe5	c.j	800001d0	
        2190000	      2188	800001d0	00002f17	auipc	x30,0x2	 x30=0x800021d0
        2192000	      2190	800001d4	e23f2823	sw	x3,-464(x30)	 x30:0x800021d0  x3:0x00000001 PA:0x80002000 store:0x00000001 load:0x00000000
        2194000	      2192	800001d8	bfe5	c.j	800001d0	
        2195000	      2193	800001d0	00002f17	auipc	x30,0x2	 x30=0x800021d0
        2197000	      2195	800001d4	e23f2823	sw	x3,-464(x30)	 x30:0x800021d0  x3:0x00000001 PA:0x80002000 store:0x00000001 load:0x00000000
        2199000	      2197	800001d8	bfe5	c.j	800001d0	
        2200000	      2198	800001d0	00002f17	auipc	x30,0x2	 x30=0x800021d0
        2202000	      2200	800001d4	e23f2823	sw	x3,-464(x30)	 x30:0x800021d0  x3:0x00000001 PA:0x80002000 store:0x00000001 load:0x00000000
        2204000	      2202	800001d8	bfe5	c.j	800001d0	
        2205000	      2203	800001d0	00002f17	auipc	x30,0x2	 x30=0x800021d0
        2207000	      2205	800001d4	e23f2823	sw	x3,-464(x30)	 x30:0x800021d0  x3:0x00000001 PA:0x80002000 store:0x00000001 load:0x00000000
        2209000	      2207	800001d8	bfe5	c.j	800001d0	
        2210000	      2208	800001d0	00002f17	auipc	x30,0x2	 x30=0x800021d0
        2212000	      2210	800001d4	e23f2823	sw	x3,-464(x30)	 x30:0x800021d0  x3:0x00000001 PA:0x80002000 store:0x00000001 load:0x00000000
        2214000	      2212	800001d8	bfe5	c.j	800001d0	
        2215000	      2213	800001d0	00002f17	auipc	x30,0x2	 x30=0x800021d0
        2217000	      2215	800001d4	e23f2823	sw	x3,-464(x30)	 x30:0x800021d0  x3:0x00000001 PA:0x80002000 store:0x00000001 load:0x00000000
        2219000	      2217	800001d8	bfe5	c.j	800001d0	
        2220000	      2218	800001d0	00002f17	auipc	x30,0x2	 x30=0x800021d0
        2222000	      2220	800001d4	e23f2823	sw	x3,-464(x30)	 x30:0x800021d0  x3:0x00000001 PA:0x80002000 store:0x00000001 load:0x00000000
        2224000	      2222	800001d8	bfe5	c.j	800001d0	
        2225000	      2223	800001d0	00002f17	auipc	x30,0x2	 x30=0x800021d0
        2227000	      2225	800001d4	e23f2823	sw	x3,-464(x30)	 x30:0x800021d0  x3:0x00000001 PA:0x80002000 store:0x00000001 load:0x00000000
        2229000	      2227	800001d8	bfe5	c.j	800001d0	
        2230000	      2228	800001d0	00002f17	auipc	x30,0x2	 x30=0x800021d0
        2232000	      2230	800001d4	e23f2823	sw	x3,-464(x30)	 x30:0x800021d0  x3:0x00000001 PA:0x80002000 store:0x00000001 load:0x00000000
        2234000	      2232	800001d8	bfe5	c.j	800001d0	
        2235000	      2233	800001d0	00002f17	auipc	x30,0x2	 x30=0x800021d0
        2237000	      2235	800001d4	e23f2823	sw	x3,-464(x30)	 x30:0x800021d0  x3:0x00000001 PA:0x80002000 store:0x00000001 load:0x00000000
        2239000	      2237	800001d8	bfe5	c.j	800001d0	
        2240000	      2238	800001d0	00002f17	auipc	x30,0x2	 x30=0x800021d0
        2242000	      2240	800001d4	e23f2823	sw	x3,-464(x30)	 x30:0x800021d0  x3:0x00000001 PA:0x80002000 store:0x00000001 load:0x00000000
        2244000	      2242	800001d8	bfe5	c.j	800001d0	
        2245000	      2243	800001d0	00002f17	auipc	x30,0x2	 x30=0x800021d0
        2247000	      2245	800001d4	e23f2823	sw	x3,-464(x30)	 x30:0x800021d0  x3:0x00000001 PA:0x80002000 store:0x00000001 load:0x00000000
        2249000	      2247	800001d8	bfe5	c.j	800001d0	
        2250000	      2248	800001d0	00002f17	auipc	x30,0x2	 x30=0x800021d0
        2252000	      2250	800001d4	e23f2823	sw	x3,-464(x30)	 x30:0x800021d0  x3:0x00000001 PA:0x80002000 store:0x00000001 load:0x00000000
        2254000	      2252	800001d8	bfe5	c.j	800001d0	
        2255000	      2253	800001d0	00002f17	auipc	x30,0x2	 x30=0x800021d0
        2257000	      2255	800001d4	e23f2823	sw	x3,-464(x30)	 x30:0x800021d0  x3:0x00000001 PA:0x80002000 store:0x00000001 load:0x00000000
        2259000	      2257	800001d8	bfe5	c.j	800001d0	
        2260000	      2258	800001d0	00002f17	auipc	x30,0x2	 x30=0x800021d0
        2262000	      2260	800001d4	e23f2823	sw	x3,-464(x30)	 x30:0x800021d0  x3:0x00000001 PA:0x80002000 store:0x00000001 load:0x00000000
        2264000	      2262	800001d8	bfe5	c.j	800001d0	
        2265000	      2263	800001d0	00002f17	auipc	x30,0x2	 x30=0x800021d0
        2267000	      2265	800001d4	e23f2823	sw	x3,-464(x30)	 x30:0x800021d0  x3:0x00000001 PA:0x80002000 store:0x00000001 load:0x00000000
        2269000	      2267	800001d8	bfe5	c.j	800001d0	
        2270000	      2268	800001d0	00002f17	auipc	x30,0x2	 x30=0x800021d0
        2272000	      2270	800001d4	e23f2823	sw	x3,-464(x30)	 x30:0x800021d0  x3:0x00000001 PA:0x80002000 store:0x00000001 load:0x00000000
        2274000	      2272	800001d8	bfe5	c.j	800001d0	
        2275000	      2273	800001d0	00002f17	auipc	x30,0x2	 x30=0x800021d0
        2277000	      2275	800001d4	e23f2823	sw	x3,-464(x30)	 x30:0x800021d0  x3:0x00000001 PA:0x80002000 store:0x00000001 load:0x00000000
        2279000	      2277	800001d8	bfe5	c.j	800001d0	
        2280000	      2278	800001d0	00002f17	auipc	x30,0x2	 x30=0x800021d0
        2282000	      2280	800001d4	e23f2823	sw	x3,-464(x30)	 x30:0x800021d0  x3:0x00000001 PA:0x80002000 store:0x00000001 load:0x00000000
        2284000	      2282	800001d8	bfe5	c.j	800001d0	
        2285000	      2283	800001d0	00002f17	auipc	x30,0x2	 x30=0x800021d0
        2287000	      2285	800001d4	e23f2823	sw	x3,-464(x30)	 x30:0x800021d0  x3:0x00000001 PA:0x80002000 store:0x00000001 load:0x00000000
        2289000	      2287	800001d8	bfe5	c.j	800001d0	
        2290000	      2288	800001d0	00002f17	auipc	x30,0x2	 x30=0x800021d0
        2292000	      2290	800001d4	e23f2823	sw	x3,-464(x30)	 x30:0x800021d0  x3:0x00000001 PA:0x80002000 store:0x00000001 load:0x00000000
        2294000	      2292	800001d8	bfe5	c.j	800001d0	
        2295000	      2293	800001d0	00002f17	auipc	x30,0x2	 x30=0x800021d0
        2297000	      2295	800001d4	e23f2823	sw	x3,-464(x30)	 x30:0x800021d0  x3:0x00000001 PA:0x80002000 store:0x00000001 load:0x00000000
        2299000	      2297	800001d8	bfe5	c.j	800001d0	
        2300000	      2298	800001d0	00002f17	auipc	x30,0x2	 x30=0x800021d0
        2302000	      2300	800001d4	e23f2823	sw	x3,-464(x30)	 x30:0x800021d0  x3:0x00000001 PA:0x80002000 store:0x00000001 load:0x00000000
        2304000	      2302	800001d8	bfe5	c.j	800001d0	
        2305000	      2303	800001d0	00002f17	auipc	x30,0x2	 x30=0x800021d0
        2307000	      2305	800001d4	e23f2823	sw	x3,-464(x30)	 x30:0x800021d0  x3:0x00000001 PA:0x80002000 store:0x00000001 load:0x00000000
        2309000	      2307	800001d8	bfe5	c.j	800001d0	
        2310000	      2308	800001d0	00002f17	auipc	x30,0x2	 x30=0x800021d0
        2312000	      2310	800001d4	e23f2823	sw	x3,-464(x30)	 x30:0x800021d0  x3:0x00000001 PA:0x80002000 store:0x00000001 load:0x00000000
        2314000	      2312	800001d8	bfe5	c.j	800001d0	
        2315000	      2313	800001d0	00002f17	auipc	x30,0x2	 x30=0x800021d0
        2317000	      2315	800001d4	e23f2823	sw	x3,-464(x30)	 x30:0x800021d0  x3:0x00000001 PA:0x80002000 store:0x00000001 load:0x00000000
        2319000	      2317	800001d8	bfe5	c.j	800001d0	
        2320000	      2318	800001d0	00002f17	auipc	x30,0x2	 x30=0x800021d0
        2322000	      2320	800001d4	e23f2823	sw	x3,-464(x30)	 x30:0x800021d0  x3:0x00000001 PA:0x80002000 store:0x00000001 load:0x00000000
        2324000	      2322	800001d8	bfe5	c.j	800001d0	
        2325000	      2323	800001d0	00002f17	auipc	x30,0x2	 x30=0x800021d0
        2327000	      2325	800001d4	e23f2823	sw	x3,-464(x30)	 x30:0x800021d0  x3:0x00000001 PA:0x80002000 store:0x00000001 load:0x00000000
        2329000	      2327	800001d8	bfe5	c.j	800001d0	
        2330000	      2328	800001d0	00002f17	auipc	x30,0x2	 x30=0x800021d0
        2332000	      2330	800001d4	e23f2823	sw	x3,-464(x30)	 x30:0x800021d0  x3:0x00000001 PA:0x80002000 store:0x00000001 load:0x00000000
        2334000	      2332	800001d8	bfe5	c.j	800001d0	
        2335000	      2333	800001d0	00002f17	auipc	x30,0x2	 x30=0x800021d0
        2337000	      2335	800001d4	e23f2823	sw	x3,-464(x30)	 x30:0x800021d0  x3:0x00000001 PA:0x80002000 store:0x00000001 load:0x00000000
        2339000	      2337	800001d8	bfe5	c.j	800001d0	
        2340000	      2338	800001d0	00002f17	auipc	x30,0x2	 x30=0x800021d0
        2342000	      2340	800001d4	e23f2823	sw	x3,-464(x30)	 x30:0x800021d0  x3:0x00000001 PA:0x80002000 store:0x00000001 load:0x00000000
        2344000	      2342	800001d8	bfe5	c.j	800001d0	
        2345000	      2343	800001d0	00002f17	auipc	x30,0x2	 x30=0x800021d0
        2347000	      2345	800001d4	e23f2823	sw	x3,-464(x30)	 x30:0x800021d0  x3:0x00000001 PA:0x80002000 store:0x00000001 load:0x00000000
        2349000	      2347	800001d8	bfe5	c.j	800001d0	
        2350000	      2348	800001d0	00002f17	auipc	x30,0x2	 x30=0x800021d0
        2352000	      2350	800001d4	e23f2823	sw	x3,-464(x30)	 x30:0x800021d0  x3:0x00000001 PA:0x80002000 store:0x00000001 load:0x00000000
        2354000	      2352	800001d8	bfe5	c.j	800001d0	
        2355000	      2353	800001d0	00002f17	auipc	x30,0x2	 x30=0x800021d0
        2357000	      2355	800001d4	e23f2823	sw	x3,-464(x30)	 x30:0x800021d0  x3:0x00000001 PA:0x80002000 store:0x00000001 load:0x00000000
        2359000	      2357	800001d8	bfe5	c.j	800001d0	
        2360000	      2358	800001d0	00002f17	auipc	x30,0x2	 x30=0x800021d0
        2362000	      2360	800001d4	e23f2823	sw	x3,-464(x30)	 x30:0x800021d0  x3:0x00000001 PA:0x80002000 store:0x00000001 load:0x00000000
        2364000	      2362	800001d8	bfe5	c.j	800001d0	
        2365000	      2363	800001d0	00002f17	auipc	x30,0x2	 x30=0x800021d0
        2367000	      2365	800001d4	e23f2823	sw	x3,-464(x30)	 x30:0x800021d0  x3:0x00000001 PA:0x80002000 store:0x00000001 load:0x00000000
        2369000	      2367	800001d8	bfe5	c.j	800001d0	
        2370000	      2368	800001d0	00002f17	auipc	x30,0x2	 x30=0x800021d0
        2372000	      2370	800001d4	e23f2823	sw	x3,-464(x30)	 x30:0x800021d0  x3:0x00000001 PA:0x80002000 store:0x00000001 load:0x00000000
        2374000	      2372	800001d8	bfe5	c.j	800001d0	
        2375000	      2373	800001d0	00002f17	auipc	x30,0x2	 x30=0x800021d0
        2377000	      2375	800001d4	e23f2823	sw	x3,-464(x30)	 x30:0x800021d0  x3:0x00000001 PA:0x80002000 store:0x00000001 load:0x00000000
        2379000	      2377	800001d8	bfe5	c.j	800001d0	
        2380000	      2378	800001d0	00002f17	auipc	x30,0x2	 x30=0x800021d0
        2382000	      2380	800001d4	e23f2823	sw	x3,-464(x30)	 x30:0x800021d0  x3:0x00000001 PA:0x80002000 store:0x00000001 load:0x00000000
        2384000	      2382	800001d8	bfe5	c.j	800001d0	
        2385000	      2383	800001d0	00002f17	auipc	x30,0x2	 x30=0x800021d0
        2387000	      2385	800001d4	e23f2823	sw	x3,-464(x30)	 x30:0x800021d0  x3:0x00000001 PA:0x80002000 store:0x00000001 load:0x00000000
        2389000	      2387	800001d8	bfe5	c.j	800001d0	
        2390000	      2388	800001d0	00002f17	auipc	x30,0x2	 x30=0x800021d0
        2392000	      2390	800001d4	e23f2823	sw	x3,-464(x30)	 x30:0x800021d0  x3:0x00000001 PA:0x80002000 store:0x00000001 load:0x00000000
        2394000	      2392	800001d8	bfe5	c.j	800001d0	
        2395000	      2393	800001d0	00002f17	auipc	x30,0x2	 x30=0x800021d0
        2397000	      2395	800001d4	e23f2823	sw	x3,-464(x30)	 x30:0x800021d0  x3:0x00000001 PA:0x80002000 store:0x00000001 load:0x00000000
        2399000	      2397	800001d8	bfe5	c.j	800001d0	
        2400000	      2398	800001d0	00002f17	auipc	x30,0x2	 x30=0x800021d0
        2402000	      2400	800001d4	e23f2823	sw	x3,-464(x30)	 x30:0x800021d0  x3:0x00000001 PA:0x80002000 store:0x00000001 load:0x00000000
        2404000	      2402	800001d8	bfe5	c.j	800001d0	
        2405000	      2403	800001d0	00002f17	auipc	x30,0x2	 x30=0x800021d0
        2407000	      2405	800001d4	e23f2823	sw	x3,-464(x30)	 x30:0x800021d0  x3:0x00000001 PA:0x80002000 store:0x00000001 load:0x00000000
        2409000	      2407	800001d8	bfe5	c.j	800001d0	
        2410000	      2408	800001d0	00002f17	auipc	x30,0x2	 x30=0x800021d0
        2412000	      2410	800001d4	e23f2823	sw	x3,-464(x30)	 x30:0x800021d0  x3:0x00000001 PA:0x80002000 store:0x00000001 load:0x00000000
        2414000	      2412	800001d8	bfe5	c.j	800001d0	
        2415000	      2413	800001d0	00002f17	auipc	x30,0x2	 x30=0x800021d0
        2417000	      2415	800001d4	e23f2823	sw	x3,-464(x30)	 x30:0x800021d0  x3:0x00000001 PA:0x80002000 store:0x00000001 load:0x00000000
        2419000	      2417	800001d8	bfe5	c.j	800001d0	
        2420000	      2418	800001d0	00002f17	auipc	x30,0x2	 x30=0x800021d0
        2422000	      2420	800001d4	e23f2823	sw	x3,-464(x30)	 x30:0x800021d0  x3:0x00000001 PA:0x80002000 store:0x00000001 load:0x00000000
        2424000	      2422	800001d8	bfe5	c.j	800001d0	
        2425000	      2423	800001d0	00002f17	auipc	x30,0x2	 x30=0x800021d0
        2427000	      2425	800001d4	e23f2823	sw	x3,-464(x30)	 x30:0x800021d0  x3:0x00000001 PA:0x80002000 store:0x00000001 load:0x00000000
        2429000	      2427	800001d8	bfe5	c.j	800001d0	
        2430000	      2428	800001d0	00002f17	auipc	x30,0x2	 x30=0x800021d0
        2432000	      2430	800001d4	e23f2823	sw	x3,-464(x30)	 x30:0x800021d0  x3:0x00000001 PA:0x80002000 store:0x00000001 load:0x00000000
        2434000	      2432	800001d8	bfe5	c.j	800001d0	
        2435000	      2433	800001d0	00002f17	auipc	x30,0x2	 x30=0x800021d0
        2437000	      2435	800001d4	e23f2823	sw	x3,-464(x30)	 x30:0x800021d0  x3:0x00000001 PA:0x80002000 store:0x00000001 load:0x00000000
        2439000	      2437	800001d8	bfe5	c.j	800001d0	
        2440000	      2438	800001d0	00002f17	auipc	x30,0x2	 x30=0x800021d0
        2442000	      2440	800001d4	e23f2823	sw	x3,-464(x30)	 x30:0x800021d0  x3:0x00000001 PA:0x80002000 store:0x00000001 load:0x00000000
        2444000	      2442	800001d8	bfe5	c.j	800001d0	
        2445000	      2443	800001d0	00002f17	auipc	x30,0x2	 x30=0x800021d0
        2447000	      2445	800001d4	e23f2823	sw	x3,-464(x30)	 x30:0x800021d0  x3:0x00000001 PA:0x80002000 store:0x00000001 load:0x00000000
        2449000	      2447	800001d8	bfe5	c.j	800001d0	
        2450000	      2448	800001d0	00002f17	auipc	x30,0x2	 x30=0x800021d0
        2452000	      2450	800001d4	e23f2823	sw	x3,-464(x30)	 x30:0x800021d0  x3:0x00000001 PA:0x80002000 store:0x00000001 load:0x00000000
        2454000	      2452	800001d8	bfe5	c.j	800001d0	
        2455000	      2453	800001d0	00002f17	auipc	x30,0x2	 x30=0x800021d0
        2457000	      2455	800001d4	e23f2823	sw	x3,-464(x30)	 x30:0x800021d0  x3:0x00000001 PA:0x80002000 store:0x00000001 load:0x00000000
        2459000	      2457	800001d8	bfe5	c.j	800001d0	
        2460000	      2458	800001d0	00002f17	auipc	x30,0x2	 x30=0x800021d0
        2462000	      2460	800001d4	e23f2823	sw	x3,-464(x30)	 x30:0x800021d0  x3:0x00000001 PA:0x80002000 store:0x00000001 load:0x00000000
        2464000	      2462	800001d8	bfe5	c.j	800001d0	
        2465000	      2463	800001d0	00002f17	auipc	x30,0x2	 x30=0x800021d0
        2467000	      2465	800001d4	e23f2823	sw	x3,-464(x30)	 x30:0x800021d0  x3:0x00000001 PA:0x80002000 store:0x00000001 load:0x00000000
        2469000	      2467	800001d8	bfe5	c.j	800001d0	
        2470000	      2468	800001d0	00002f17	auipc	x30,0x2	 x30=0x800021d0
        2472000	      2470	800001d4	e23f2823	sw	x3,-464(x30)	 x30:0x800021d0  x3:0x00000001 PA:0x80002000 store:0x00000001 load:0x00000000
        2474000	      2472	800001d8	bfe5	c.j	800001d0	
        2475000	      2473	800001d0	00002f17	auipc	x30,0x2	 x30=0x800021d0
        2477000	      2475	800001d4	e23f2823	sw	x3,-464(x30)	 x30:0x800021d0  x3:0x00000001 PA:0x80002000 store:0x00000001 load:0x00000000
        2479000	      2477	800001d8	bfe5	c.j	800001d0	
        2480000	      2478	800001d0	00002f17	auipc	x30,0x2	 x30=0x800021d0
        2482000	      2480	800001d4	e23f2823	sw	x3,-464(x30)	 x30:0x800021d0  x3:0x00000001 PA:0x80002000 store:0x00000001 load:0x00000000
        2484000	      2482	800001d8	bfe5	c.j	800001d0	
        2485000	      2483	800001d0	00002f17	auipc	x30,0x2	 x30=0x800021d0
        2487000	      2485	800001d4	e23f2823	sw	x3,-464(x30)	 x30:0x800021d0  x3:0x00000001 PA:0x80002000 store:0x00000001 load:0x00000000
        2489000	      2487	800001d8	bfe5	c.j	800001d0	
        2490000	      2488	800001d0	00002f17	auipc	x30,0x2	 x30=0x800021d0
        2492000	      2490	800001d4	e23f2823	sw	x3,-464(x30)	 x30:0x800021d0  x3:0x00000001 PA:0x80002000 store:0x00000001 load:0x00000000
        2494000	      2492	800001d8	bfe5	c.j	800001d0	
        2495000	      2493	800001d0	00002f17	auipc	x30,0x2	 x30=0x800021d0
        2497000	      2495	800001d4	e23f2823	sw	x3,-464(x30)	 x30:0x800021d0  x3:0x00000001 PA:0x80002000 store:0x00000001 load:0x00000000
        2499000	      2497	800001d8	bfe5	c.j	800001d0	
        2500000	      2498	800001d0	00002f17	auipc	x30,0x2	 x30=0x800021d0
        2502000	      2500	800001d4	e23f2823	sw	x3,-464(x30)	 x30:0x800021d0  x3:0x00000001 PA:0x80002000 store:0x00000001 load:0x00000000
        2504000	      2502	800001d8	bfe5	c.j	800001d0	
        2505000	      2503	800001d0	00002f17	auipc	x30,0x2	 x30=0x800021d0
        2507000	      2505	800001d4	e23f2823	sw	x3,-464(x30)	 x30:0x800021d0  x3:0x00000001 PA:0x80002000 store:0x00000001 load:0x00000000
        2509000	      2507	800001d8	bfe5	c.j	800001d0	
        2510000	      2508	800001d0	00002f17	auipc	x30,0x2	 x30=0x800021d0
        2512000	      2510	800001d4	e23f2823	sw	x3,-464(x30)	 x30:0x800021d0  x3:0x00000001 PA:0x80002000 store:0x00000001 load:0x00000000
        2514000	      2512	800001d8	bfe5	c.j	800001d0	
        2515000	      2513	800001d0	00002f17	auipc	x30,0x2	 x30=0x800021d0
        2517000	      2515	800001d4	e23f2823	sw	x3,-464(x30)	 x30:0x800021d0  x3:0x00000001 PA:0x80002000 store:0x00000001 load:0x00000000
        2519000	      2517	800001d8	bfe5	c.j	800001d0	
        2520000	      2518	800001d0	00002f17	auipc	x30,0x2	 x30=0x800021d0
        2522000	      2520	800001d4	e23f2823	sw	x3,-464(x30)	 x30:0x800021d0  x3:0x00000001 PA:0x80002000 store:0x00000001 load:0x00000000
        2524000	      2522	800001d8	bfe5	c.j	800001d0	
        2525000	      2523	800001d0	00002f17	auipc	x30,0x2	 x30=0x800021d0
        2527000	      2525	800001d4	e23f2823	sw	x3,-464(x30)	 x30:0x800021d0  x3:0x00000001 PA:0x80002000 store:0x00000001 load:0x00000000
        2529000	      2527	800001d8	bfe5	c.j	800001d0	
        2530000	      2528	800001d0	00002f17	auipc	x30,0x2	 x30=0x800021d0
        2532000	      2530	800001d4	e23f2823	sw	x3,-464(x30)	 x30:0x800021d0  x3:0x00000001 PA:0x80002000 store:0x00000001 load:0x00000000
        2534000	      2532	800001d8	bfe5	c.j	800001d0	
        2535000	      2533	800001d0	00002f17	auipc	x30,0x2	 x30=0x800021d0
        2537000	      2535	800001d4	e23f2823	sw	x3,-464(x30)	 x30:0x800021d0  x3:0x00000001 PA:0x80002000 store:0x00000001 load:0x00000000
        2539000	      2537	800001d8	bfe5	c.j	800001d0	
        2540000	      2538	800001d0	00002f17	auipc	x30,0x2	 x30=0x800021d0
        2542000	      2540	800001d4	e23f2823	sw	x3,-464(x30)	 x30:0x800021d0  x3:0x00000001 PA:0x80002000 store:0x00000001 load:0x00000000
        2544000	      2542	800001d8	bfe5	c.j	800001d0	
        2545000	      2543	800001d0	00002f17	auipc	x30,0x2	 x30=0x800021d0
        2547000	      2545	800001d4	e23f2823	sw	x3,-464(x30)	 x30:0x800021d0  x3:0x00000001 PA:0x80002000 store:0x00000001 load:0x00000000
        2549000	      2547	800001d8	bfe5	c.j	800001d0	
        2550000	      2548	800001d0	00002f17	auipc	x30,0x2	 x30=0x800021d0
        2552000	      2550	800001d4	e23f2823	sw	x3,-464(x30)	 x30:0x800021d0  x3:0x00000001 PA:0x80002000 store:0x00000001 load:0x00000000
        2554000	      2552	800001d8	bfe5	c.j	800001d0	
        2555000	      2553	800001d0	00002f17	auipc	x30,0x2	 x30=0x800021d0
        2557000	      2555	800001d4	e23f2823	sw	x3,-464(x30)	 x30:0x800021d0  x3:0x00000001 PA:0x80002000 store:0x00000001 load:0x00000000
        2559000	      2557	800001d8	bfe5	c.j	800001d0	
        2560000	      2558	800001d0	00002f17	auipc	x30,0x2	 x30=0x800021d0
        2562000	      2560	800001d4	e23f2823	sw	x3,-464(x30)	 x30:0x800021d0  x3:0x00000001 PA:0x80002000 store:0x00000001 load:0x00000000
        2564000	      2562	800001d8	bfe5	c.j	800001d0	
        2565000	      2563	800001d0	00002f17	auipc	x30,0x2	 x30=0x800021d0
        2567000	      2565	800001d4	e23f2823	sw	x3,-464(x30)	 x30:0x800021d0  x3:0x00000001 PA:0x80002000 store:0x00000001 load:0x00000000
        2569000	      2567	800001d8	bfe5	c.j	800001d0	
        2570000	      2568	800001d0	00002f17	auipc	x30,0x2	 x30=0x800021d0
        2572000	      2570	800001d4	e23f2823	sw	x3,-464(x30)	 x30:0x800021d0  x3:0x00000001 PA:0x80002000 store:0x00000001 load:0x00000000
        2574000	      2572	800001d8	bfe5	c.j	800001d0	
        2575000	      2573	800001d0	00002f17	auipc	x30,0x2	 x30=0x800021d0
        2577000	      2575	800001d4	e23f2823	sw	x3,-464(x30)	 x30:0x800021d0  x3:0x00000001 PA:0x80002000 store:0x00000001 load:0x00000000
        2579000	      2577	800001d8	bfe5	c.j	800001d0	
        2580000	      2578	800001d0	00002f17	auipc	x30,0x2	 x30=0x800021d0
        2582000	      2580	800001d4	e23f2823	sw	x3,-464(x30)	 x30:0x800021d0  x3:0x00000001 PA:0x80002000 store:0x00000001 load:0x00000000
        2584000	      2582	800001d8	bfe5	c.j	800001d0	
        2585000	      2583	800001d0	00002f17	auipc	x30,0x2	 x30=0x800021d0
        2587000	      2585	800001d4	e23f2823	sw	x3,-464(x30)	 x30:0x800021d0  x3:0x00000001 PA:0x80002000 store:0x00000001 load:0x00000000
        2589000	      2587	800001d8	bfe5	c.j	800001d0	
        2590000	      2588	800001d0	00002f17	auipc	x30,0x2	 x30=0x800021d0
        2592000	      2590	800001d4	e23f2823	sw	x3,-464(x30)	 x30:0x800021d0  x3:0x00000001 PA:0x80002000 store:0x00000001 load:0x00000000
        2594000	      2592	800001d8	bfe5	c.j	800001d0	
        2595000	      2593	800001d0	00002f17	auipc	x30,0x2	 x30=0x800021d0
        2597000	      2595	800001d4	e23f2823	sw	x3,-464(x30)	 x30:0x800021d0  x3:0x00000001 PA:0x80002000 store:0x00000001 load:0x00000000
        2599000	      2597	800001d8	bfe5	c.j	800001d0	
        2600000	      2598	800001d0	00002f17	auipc	x30,0x2	 x30=0x800021d0
        2602000	      2600	800001d4	e23f2823	sw	x3,-464(x30)	 x30:0x800021d0  x3:0x00000001 PA:0x80002000 store:0x00000001 load:0x00000000
        2604000	      2602	800001d8	bfe5	c.j	800001d0	
        2605000	      2603	800001d0	00002f17	auipc	x30,0x2	 x30=0x800021d0
        2607000	      2605	800001d4	e23f2823	sw	x3,-464(x30)	 x30:0x800021d0  x3:0x00000001 PA:0x80002000 store:0x00000001 load:0x00000000
        2609000	      2607	800001d8	bfe5	c.j	800001d0	
        2610000	      2608	800001d0	00002f17	auipc	x30,0x2	 x30=0x800021d0
        2612000	      2610	800001d4	e23f2823	sw	x3,-464(x30)	 x30:0x800021d0  x3:0x00000001 PA:0x80002000 store:0x00000001 load:0x00000000
        2614000	      2612	800001d8	bfe5	c.j	800001d0	
        2615000	      2613	800001d0	00002f17	auipc	x30,0x2	 x30=0x800021d0
        2617000	      2615	800001d4	e23f2823	sw	x3,-464(x30)	 x30:0x800021d0  x3:0x00000001 PA:0x80002000 store:0x00000001 load:0x00000000
        2619000	      2617	800001d8	bfe5	c.j	800001d0	
        2620000	      2618	800001d0	00002f17	auipc	x30,0x2	 x30=0x800021d0
        2622000	      2620	800001d4	e23f2823	sw	x3,-464(x30)	 x30:0x800021d0  x3:0x00000001 PA:0x80002000 store:0x00000001 load:0x00000000
        2624000	      2622	800001d8	bfe5	c.j	800001d0	
        2625000	      2623	800001d0	00002f17	auipc	x30,0x2	 x30=0x800021d0
        2627000	      2625	800001d4	e23f2823	sw	x3,-464(x30)	 x30:0x800021d0  x3:0x00000001 PA:0x80002000 store:0x00000001 load:0x00000000
        2629000	      2627	800001d8	bfe5	c.j	800001d0	
        2630000	      2628	800001d0	00002f17	auipc	x30,0x2	 x30=0x800021d0
        2632000	      2630	800001d4	e23f2823	sw	x3,-464(x30)	 x30:0x800021d0  x3:0x00000001 PA:0x80002000 store:0x00000001 load:0x00000000
        2634000	      2632	800001d8	bfe5	c.j	800001d0	
        2635000	      2633	800001d0	00002f17	auipc	x30,0x2	 x30=0x800021d0
        2637000	      2635	800001d4	e23f2823	sw	x3,-464(x30)	 x30:0x800021d0  x3:0x00000001 PA:0x80002000 store:0x00000001 load:0x00000000
        2639000	      2637	800001d8	bfe5	c.j	800001d0	
        2640000	      2638	800001d0	00002f17	auipc	x30,0x2	 x30=0x800021d0
        2642000	      2640	800001d4	e23f2823	sw	x3,-464(x30)	 x30:0x800021d0  x3:0x00000001 PA:0x80002000 store:0x00000001 load:0x00000000
        2644000	      2642	800001d8	bfe5	c.j	800001d0	
        2645000	      2643	800001d0	00002f17	auipc	x30,0x2	 x30=0x800021d0
        2647000	      2645	800001d4	e23f2823	sw	x3,-464(x30)	 x30:0x800021d0  x3:0x00000001 PA:0x80002000 store:0x00000001 load:0x00000000
        2649000	      2647	800001d8	bfe5	c.j	800001d0	
        2650000	      2648	800001d0	00002f17	auipc	x30,0x2	 x30=0x800021d0
        2652000	      2650	800001d4	e23f2823	sw	x3,-464(x30)	 x30:0x800021d0  x3:0x00000001 PA:0x80002000 store:0x00000001 load:0x00000000
        2654000	      2652	800001d8	bfe5	c.j	800001d0	
        2655000	      2653	800001d0	00002f17	auipc	x30,0x2	 x30=0x800021d0
        2657000	      2655	800001d4	e23f2823	sw	x3,-464(x30)	 x30:0x800021d0  x3:0x00000001 PA:0x80002000 store:0x00000001 load:0x00000000
        2659000	      2657	800001d8	bfe5	c.j	800001d0	
        2660000	      2658	800001d0	00002f17	auipc	x30,0x2	 x30=0x800021d0
        2662000	      2660	800001d4	e23f2823	sw	x3,-464(x30)	 x30:0x800021d0  x3:0x00000001 PA:0x80002000 store:0x00000001 load:0x00000000
        2664000	      2662	800001d8	bfe5	c.j	800001d0	
        2665000	      2663	800001d0	00002f17	auipc	x30,0x2	 x30=0x800021d0
        2667000	      2665	800001d4	e23f2823	sw	x3,-464(x30)	 x30:0x800021d0  x3:0x00000001 PA:0x80002000 store:0x00000001 load:0x00000000
        2669000	      2667	800001d8	bfe5	c.j	800001d0	
        2670000	      2668	800001d0	00002f17	auipc	x30,0x2	 x30=0x800021d0
        2672000	      2670	800001d4	e23f2823	sw	x3,-464(x30)	 x30:0x800021d0  x3:0x00000001 PA:0x80002000 store:0x00000001 load:0x00000000
        2674000	      2672	800001d8	bfe5	c.j	800001d0	
        2675000	      2673	800001d0	00002f17	auipc	x30,0x2	 x30=0x800021d0
        2677000	      2675	800001d4	e23f2823	sw	x3,-464(x30)	 x30:0x800021d0  x3:0x00000001 PA:0x80002000 store:0x00000001 load:0x00000000
        2679000	      2677	800001d8	bfe5	c.j	800001d0	
        2680000	      2678	800001d0	00002f17	auipc	x30,0x2	 x30=0x800021d0
        2682000	      2680	800001d4	e23f2823	sw	x3,-464(x30)	 x30:0x800021d0  x3:0x00000001 PA:0x80002000 store:0x00000001 load:0x00000000
        2684000	      2682	800001d8	bfe5	c.j	800001d0	
        2685000	      2683	800001d0	00002f17	auipc	x30,0x2	 x30=0x800021d0
        2687000	      2685	800001d4	e23f2823	sw	x3,-464(x30)	 x30:0x800021d0  x3:0x00000001 PA:0x80002000 store:0x00000001 load:0x00000000
        2689000	      2687	800001d8	bfe5	c.j	800001d0	
        2690000	      2688	800001d0	00002f17	auipc	x30,0x2	 x30=0x800021d0
        2692000	      2690	800001d4	e23f2823	sw	x3,-464(x30)	 x30:0x800021d0  x3:0x00000001 PA:0x80002000 store:0x00000001 load:0x00000000
        2694000	      2692	800001d8	bfe5	c.j	800001d0	
        2695000	      2693	800001d0	00002f17	auipc	x30,0x2	 x30=0x800021d0
        2697000	      2695	800001d4	e23f2823	sw	x3,-464(x30)	 x30:0x800021d0  x3:0x00000001 PA:0x80002000 store:0x00000001 load:0x00000000
        2699000	      2697	800001d8	bfe5	c.j	800001d0	
        2700000	      2698	800001d0	00002f17	auipc	x30,0x2	 x30=0x800021d0
        2702000	      2700	800001d4	e23f2823	sw	x3,-464(x30)	 x30:0x800021d0  x3:0x00000001 PA:0x80002000 store:0x00000001 load:0x00000000
        2704000	      2702	800001d8	bfe5	c.j	800001d0	
        2705000	      2703	800001d0	00002f17	auipc	x30,0x2	 x30=0x800021d0
        2707000	      2705	800001d4	e23f2823	sw	x3,-464(x30)	 x30:0x800021d0  x3:0x00000001 PA:0x80002000 store:0x00000001 load:0x00000000
        2709000	      2707	800001d8	bfe5	c.j	800001d0	
        2710000	      2708	800001d0	00002f17	auipc	x30,0x2	 x30=0x800021d0
        2712000	      2710	800001d4	e23f2823	sw	x3,-464(x30)	 x30:0x800021d0  x3:0x00000001 PA:0x80002000 store:0x00000001 load:0x00000000
        2714000	      2712	800001d8	bfe5	c.j	800001d0	
        2715000	      2713	800001d0	00002f17	auipc	x30,0x2	 x30=0x800021d0
        2717000	      2715	800001d4	e23f2823	sw	x3,-464(x30)	 x30:0x800021d0  x3:0x00000001 PA:0x80002000 store:0x00000001 load:0x00000000
        2719000	      2717	800001d8	bfe5	c.j	800001d0	
        2720000	      2718	800001d0	00002f17	auipc	x30,0x2	 x30=0x800021d0
        2722000	      2720	800001d4	e23f2823	sw	x3,-464(x30)	 x30:0x800021d0  x3:0x00000001 PA:0x80002000 store:0x00000001 load:0x00000000
        2724000	      2722	800001d8	bfe5	c.j	800001d0	
        2725000	      2723	800001d0	00002f17	auipc	x30,0x2	 x30=0x800021d0
        2727000	      2725	800001d4	e23f2823	sw	x3,-464(x30)	 x30:0x800021d0  x3:0x00000001 PA:0x80002000 store:0x00000001 load:0x00000000
        2729000	      2727	800001d8	bfe5	c.j	800001d0	
        2730000	      2728	800001d0	00002f17	auipc	x30,0x2	 x30=0x800021d0
        2732000	      2730	800001d4	e23f2823	sw	x3,-464(x30)	 x30:0x800021d0  x3:0x00000001 PA:0x80002000 store:0x00000001 load:0x00000000
        2734000	      2732	800001d8	bfe5	c.j	800001d0	
        2735000	      2733	800001d0	00002f17	auipc	x30,0x2	 x30=0x800021d0
        2737000	      2735	800001d4	e23f2823	sw	x3,-464(x30)	 x30:0x800021d0  x3:0x00000001 PA:0x80002000 store:0x00000001 load:0x00000000
        2739000	      2737	800001d8	bfe5	c.j	800001d0	
        2740000	      2738	800001d0	00002f17	auipc	x30,0x2	 x30=0x800021d0
        2742000	      2740	800001d4	e23f2823	sw	x3,-464(x30)	 x30:0x800021d0  x3:0x00000001 PA:0x80002000 store:0x00000001 load:0x00000000
        2744000	      2742	800001d8	bfe5	c.j	800001d0	
        2745000	      2743	800001d0	00002f17	auipc	x30,0x2	 x30=0x800021d0
        2747000	      2745	800001d4	e23f2823	sw	x3,-464(x30)	 x30:0x800021d0  x3:0x00000001 PA:0x80002000 store:0x00000001 load:0x00000000
        2749000	      2747	800001d8	bfe5	c.j	800001d0	
        2750000	      2748	800001d0	00002f17	auipc	x30,0x2	 x30=0x800021d0
        2752000	      2750	800001d4	e23f2823	sw	x3,-464(x30)	 x30:0x800021d0  x3:0x00000001 PA:0x80002000 store:0x00000001 load:0x00000000
        2754000	      2752	800001d8	bfe5	c.j	800001d0	
        2755000	      2753	800001d0	00002f17	auipc	x30,0x2	 x30=0x800021d0
        2757000	      2755	800001d4	e23f2823	sw	x3,-464(x30)	 x30:0x800021d0  x3:0x00000001 PA:0x80002000 store:0x00000001 load:0x00000000
        2759000	      2757	800001d8	bfe5	c.j	800001d0	
        2760000	      2758	800001d0	00002f17	auipc	x30,0x2	 x30=0x800021d0
        2762000	      2760	800001d4	e23f2823	sw	x3,-464(x30)	 x30:0x800021d0  x3:0x00000001 PA:0x80002000 store:0x00000001 load:0x00000000
        2764000	      2762	800001d8	bfe5	c.j	800001d0	
        2765000	      2763	800001d0	00002f17	auipc	x30,0x2	 x30=0x800021d0
        2767000	      2765	800001d4	e23f2823	sw	x3,-464(x30)	 x30:0x800021d0  x3:0x00000001 PA:0x80002000 store:0x00000001 load:0x00000000
        2769000	      2767	800001d8	bfe5	c.j	800001d0	
        2770000	      2768	800001d0	00002f17	auipc	x30,0x2	 x30=0x800021d0
        2772000	      2770	800001d4	e23f2823	sw	x3,-464(x30)	 x30:0x800021d0  x3:0x00000001 PA:0x80002000 store:0x00000001 load:0x00000000
        2774000	      2772	800001d8	bfe5	c.j	800001d0	
        2775000	      2773	800001d0	00002f17	auipc	x30,0x2	 x30=0x800021d0
        2777000	      2775	800001d4	e23f2823	sw	x3,-464(x30)	 x30:0x800021d0  x3:0x00000001 PA:0x80002000 store:0x00000001 load:0x00000000
        2779000	      2777	800001d8	bfe5	c.j	800001d0	
        2780000	      2778	800001d0	00002f17	auipc	x30,0x2	 x30=0x800021d0
        2782000	      2780	800001d4	e23f2823	sw	x3,-464(x30)	 x30:0x800021d0  x3:0x00000001 PA:0x80002000 store:0x00000001 load:0x00000000
        2784000	      2782	800001d8	bfe5	c.j	800001d0	
        2785000	      2783	800001d0	00002f17	auipc	x30,0x2	 x30=0x800021d0
        2787000	      2785	800001d4	e23f2823	sw	x3,-464(x30)	 x30:0x800021d0  x3:0x00000001 PA:0x80002000 store:0x00000001 load:0x00000000
        2789000	      2787	800001d8	bfe5	c.j	800001d0	
        2790000	      2788	800001d0	00002f17	auipc	x30,0x2	 x30=0x800021d0
        2792000	      2790	800001d4	e23f2823	sw	x3,-464(x30)	 x30:0x800021d0  x3:0x00000001 PA:0x80002000 store:0x00000001 load:0x00000000
        2794000	      2792	800001d8	bfe5	c.j	800001d0	
        2795000	      2793	800001d0	00002f17	auipc	x30,0x2	 x30=0x800021d0
        2797000	      2795	800001d4	e23f2823	sw	x3,-464(x30)	 x30:0x800021d0  x3:0x00000001 PA:0x80002000 store:0x00000001 load:0x00000000
        2799000	      2797	800001d8	bfe5	c.j	800001d0	
        2800000	      2798	800001d0	00002f17	auipc	x30,0x2	 x30=0x800021d0
        2802000	      2800	800001d4	e23f2823	sw	x3,-464(x30)	 x30:0x800021d0  x3:0x00000001 PA:0x80002000 store:0x00000001 load:0x00000000
        2804000	      2802	800001d8	bfe5	c.j	800001d0	
        2805000	      2803	800001d0	00002f17	auipc	x30,0x2	 x30=0x800021d0
        2807000	      2805	800001d4	e23f2823	sw	x3,-464(x30)	 x30:0x800021d0  x3:0x00000001 PA:0x80002000 store:0x00000001 load:0x00000000
        2809000	      2807	800001d8	bfe5	c.j	800001d0	
        2810000	      2808	800001d0	00002f17	auipc	x30,0x2	 x30=0x800021d0
        2812000	      2810	800001d4	e23f2823	sw	x3,-464(x30)	 x30:0x800021d0  x3:0x00000001 PA:0x80002000 store:0x00000001 load:0x00000000
        2814000	      2812	800001d8	bfe5	c.j	800001d0	
        2815000	      2813	800001d0	00002f17	auipc	x30,0x2	 x30=0x800021d0
        2817000	      2815	800001d4	e23f2823	sw	x3,-464(x30)	 x30:0x800021d0  x3:0x00000001 PA:0x80002000 store:0x00000001 load:0x00000000
        2819000	      2817	800001d8	bfe5	c.j	800001d0	
        2820000	      2818	800001d0	00002f17	auipc	x30,0x2	 x30=0x800021d0
        2822000	      2820	800001d4	e23f2823	sw	x3,-464(x30)	 x30:0x800021d0  x3:0x00000001 PA:0x80002000 store:0x00000001 load:0x00000000
        2824000	      2822	800001d8	bfe5	c.j	800001d0	
        2825000	      2823	800001d0	00002f17	auipc	x30,0x2	 x30=0x800021d0
        2827000	      2825	800001d4	e23f2823	sw	x3,-464(x30)	 x30:0x800021d0  x3:0x00000001 PA:0x80002000 store:0x00000001 load:0x00000000
        2829000	      2827	800001d8	bfe5	c.j	800001d0	
        2830000	      2828	800001d0	00002f17	auipc	x30,0x2	 x30=0x800021d0
        2832000	      2830	800001d4	e23f2823	sw	x3,-464(x30)	 x30:0x800021d0  x3:0x00000001 PA:0x80002000 store:0x00000001 load:0x00000000
        2834000	      2832	800001d8	bfe5	c.j	800001d0	
        2835000	      2833	800001d0	00002f17	auipc	x30,0x2	 x30=0x800021d0
        2837000	      2835	800001d4	e23f2823	sw	x3,-464(x30)	 x30:0x800021d0  x3:0x00000001 PA:0x80002000 store:0x00000001 load:0x00000000
        2839000	      2837	800001d8	bfe5	c.j	800001d0	
        2840000	      2838	800001d0	00002f17	auipc	x30,0x2	 x30=0x800021d0
        2842000	      2840	800001d4	e23f2823	sw	x3,-464(x30)	 x30:0x800021d0  x3:0x00000001 PA:0x80002000 store:0x00000001 load:0x00000000
        2844000	      2842	800001d8	bfe5	c.j	800001d0	
        2845000	      2843	800001d0	00002f17	auipc	x30,0x2	 x30=0x800021d0
        2847000	      2845	800001d4	e23f2823	sw	x3,-464(x30)	 x30:0x800021d0  x3:0x00000001 PA:0x80002000 store:0x00000001 load:0x00000000
        2849000	      2847	800001d8	bfe5	c.j	800001d0	
        2850000	      2848	800001d0	00002f17	auipc	x30,0x2	 x30=0x800021d0
        2852000	      2850	800001d4	e23f2823	sw	x3,-464(x30)	 x30:0x800021d0  x3:0x00000001 PA:0x80002000 store:0x00000001 load:0x00000000
        2854000	      2852	800001d8	bfe5	c.j	800001d0	
        2855000	      2853	800001d0	00002f17	auipc	x30,0x2	 x30=0x800021d0
        2857000	      2855	800001d4	e23f2823	sw	x3,-464(x30)	 x30:0x800021d0  x3:0x00000001 PA:0x80002000 store:0x00000001 load:0x00000000
        2859000	      2857	800001d8	bfe5	c.j	800001d0	
        2860000	      2858	800001d0	00002f17	auipc	x30,0x2	 x30=0x800021d0
        2862000	      2860	800001d4	e23f2823	sw	x3,-464(x30)	 x30:0x800021d0  x3:0x00000001 PA:0x80002000 store:0x00000001 load:0x00000000
        2864000	      2862	800001d8	bfe5	c.j	800001d0	
        2865000	      2863	800001d0	00002f17	auipc	x30,0x2	 x30=0x800021d0
        2867000	      2865	800001d4	e23f2823	sw	x3,-464(x30)	 x30:0x800021d0  x3:0x00000001 PA:0x80002000 store:0x00000001 load:0x00000000
        2869000	      2867	800001d8	bfe5	c.j	800001d0	
        2870000	      2868	800001d0	00002f17	auipc	x30,0x2	 x30=0x800021d0
        2872000	      2870	800001d4	e23f2823	sw	x3,-464(x30)	 x30:0x800021d0  x3:0x00000001 PA:0x80002000 store:0x00000001 load:0x00000000
        2874000	      2872	800001d8	bfe5	c.j	800001d0	
        2875000	      2873	800001d0	00002f17	auipc	x30,0x2	 x30=0x800021d0
        2877000	      2875	800001d4	e23f2823	sw	x3,-464(x30)	 x30:0x800021d0  x3:0x00000001 PA:0x80002000 store:0x00000001 load:0x00000000
        2879000	      2877	800001d8	bfe5	c.j	800001d0	
        2880000	      2878	800001d0	00002f17	auipc	x30,0x2	 x30=0x800021d0
        2882000	      2880	800001d4	e23f2823	sw	x3,-464(x30)	 x30:0x800021d0  x3:0x00000001 PA:0x80002000 store:0x00000001 load:0x00000000
        2884000	      2882	800001d8	bfe5	c.j	800001d0	
        2885000	      2883	800001d0	00002f17	auipc	x30,0x2	 x30=0x800021d0
        2887000	      2885	800001d4	e23f2823	sw	x3,-464(x30)	 x30:0x800021d0  x3:0x00000001 PA:0x80002000 store:0x00000001 load:0x00000000
        2889000	      2887	800001d8	bfe5	c.j	800001d0	
        2890000	      2888	800001d0	00002f17	auipc	x30,0x2	 x30=0x800021d0
        2892000	      2890	800001d4	e23f2823	sw	x3,-464(x30)	 x30:0x800021d0  x3:0x00000001 PA:0x80002000 store:0x00000001 load:0x00000000
        2894000	      2892	800001d8	bfe5	c.j	800001d0	
        2895000	      2893	800001d0	00002f17	auipc	x30,0x2	 x30=0x800021d0
        2897000	      2895	800001d4	e23f2823	sw	x3,-464(x30)	 x30:0x800021d0  x3:0x00000001 PA:0x80002000 store:0x00000001 load:0x00000000
        2899000	      2897	800001d8	bfe5	c.j	800001d0	
        2900000	      2898	800001d0	00002f17	auipc	x30,0x2	 x30=0x800021d0
        2902000	      2900	800001d4	e23f2823	sw	x3,-464(x30)	 x30:0x800021d0  x3:0x00000001 PA:0x80002000 store:0x00000001 load:0x00000000
        2904000	      2902	800001d8	bfe5	c.j	800001d0	
        2905000	      2903	800001d0	00002f17	auipc	x30,0x2	 x30=0x800021d0
        2907000	      2905	800001d4	e23f2823	sw	x3,-464(x30)	 x30:0x800021d0  x3:0x00000001 PA:0x80002000 store:0x00000001 load:0x00000000
        2909000	      2907	800001d8	bfe5	c.j	800001d0	
        2910000	      2908	800001d0	00002f17	auipc	x30,0x2	 x30=0x800021d0
        2912000	      2910	800001d4	e23f2823	sw	x3,-464(x30)	 x30:0x800021d0  x3:0x00000001 PA:0x80002000 store:0x00000001 load:0x00000000
        2914000	      2912	800001d8	bfe5	c.j	800001d0	
        2915000	      2913	800001d0	00002f17	auipc	x30,0x2	 x30=0x800021d0
        2917000	      2915	800001d4	e23f2823	sw	x3,-464(x30)	 x30:0x800021d0  x3:0x00000001 PA:0x80002000 store:0x00000001 load:0x00000000
        2919000	      2917	800001d8	bfe5	c.j	800001d0	
        2920000	      2918	800001d0	00002f17	auipc	x30,0x2	 x30=0x800021d0
        2922000	      2920	800001d4	e23f2823	sw	x3,-464(x30)	 x30:0x800021d0  x3:0x00000001 PA:0x80002000 store:0x00000001 load:0x00000000
        2924000	      2922	800001d8	bfe5	c.j	800001d0	
        2925000	      2923	800001d0	00002f17	auipc	x30,0x2	 x30=0x800021d0
        2927000	      2925	800001d4	e23f2823	sw	x3,-464(x30)	 x30:0x800021d0  x3:0x00000001 PA:0x80002000 store:0x00000001 load:0x00000000
        2929000	      2927	800001d8	bfe5	c.j	800001d0	
        2930000	      2928	800001d0	00002f17	auipc	x30,0x2	 x30=0x800021d0
        2932000	      2930	800001d4	e23f2823	sw	x3,-464(x30)	 x30:0x800021d0  x3:0x00000001 PA:0x80002000 store:0x00000001 load:0x00000000
        2934000	      2932	800001d8	bfe5	c.j	800001d0	
        2935000	      2933	800001d0	00002f17	auipc	x30,0x2	 x30=0x800021d0
        2937000	      2935	800001d4	e23f2823	sw	x3,-464(x30)	 x30:0x800021d0  x3:0x00000001 PA:0x80002000 store:0x00000001 load:0x00000000
        2939000	      2937	800001d8	bfe5	c.j	800001d0	
        2940000	      2938	800001d0	00002f17	auipc	x30,0x2	 x30=0x800021d0
        2942000	      2940	800001d4	e23f2823	sw	x3,-464(x30)	 x30:0x800021d0  x3:0x00000001 PA:0x80002000 store:0x00000001 load:0x00000000
        2944000	      2942	800001d8	bfe5	c.j	800001d0	
        2945000	      2943	800001d0	00002f17	auipc	x30,0x2	 x30=0x800021d0
        2947000	      2945	800001d4	e23f2823	sw	x3,-464(x30)	 x30:0x800021d0  x3:0x00000001 PA:0x80002000 store:0x00000001 load:0x00000000
        2949000	      2947	800001d8	bfe5	c.j	800001d0	
        2950000	      2948	800001d0	00002f17	auipc	x30,0x2	 x30=0x800021d0
        2952000	      2950	800001d4	e23f2823	sw	x3,-464(x30)	 x30:0x800021d0  x3:0x00000001 PA:0x80002000 store:0x00000001 load:0x00000000
        2954000	      2952	800001d8	bfe5	c.j	800001d0	
        2955000	      2953	800001d0	00002f17	auipc	x30,0x2	 x30=0x800021d0
        2957000	      2955	800001d4	e23f2823	sw	x3,-464(x30)	 x30:0x800021d0  x3:0x00000001 PA:0x80002000 store:0x00000001 load:0x00000000
        2959000	      2957	800001d8	bfe5	c.j	800001d0	
        2960000	      2958	800001d0	00002f17	auipc	x30,0x2	 x30=0x800021d0
        2962000	      2960	800001d4	e23f2823	sw	x3,-464(x30)	 x30:0x800021d0  x3:0x00000001 PA:0x80002000 store:0x00000001 load:0x00000000
        2964000	      2962	800001d8	bfe5	c.j	800001d0	
        2965000	      2963	800001d0	00002f17	auipc	x30,0x2	 x30=0x800021d0
        2967000	      2965	800001d4	e23f2823	sw	x3,-464(x30)	 x30:0x800021d0  x3:0x00000001 PA:0x80002000 store:0x00000001 load:0x00000000
        2969000	      2967	800001d8	bfe5	c.j	800001d0	
        2970000	      2968	800001d0	00002f17	auipc	x30,0x2	 x30=0x800021d0
        2972000	      2970	800001d4	e23f2823	sw	x3,-464(x30)	 x30:0x800021d0  x3:0x00000001 PA:0x80002000 store:0x00000001 load:0x00000000
        2974000	      2972	800001d8	bfe5	c.j	800001d0	
        2975000	      2973	800001d0	00002f17	auipc	x30,0x2	 x30=0x800021d0
        2977000	      2975	800001d4	e23f2823	sw	x3,-464(x30)	 x30:0x800021d0  x3:0x00000001 PA:0x80002000 store:0x00000001 load:0x00000000
        2979000	      2977	800001d8	bfe5	c.j	800001d0	
        2980000	      2978	800001d0	00002f17	auipc	x30,0x2	 x30=0x800021d0
        2982000	      2980	800001d4	e23f2823	sw	x3,-464(x30)	 x30:0x800021d0  x3:0x00000001 PA:0x80002000 store:0x00000001 load:0x00000000
        2984000	      2982	800001d8	bfe5	c.j	800001d0	
        2985000	      2983	800001d0	00002f17	auipc	x30,0x2	 x30=0x800021d0
        2987000	      2985	800001d4	e23f2823	sw	x3,-464(x30)	 x30:0x800021d0  x3:0x00000001 PA:0x80002000 store:0x00000001 load:0x00000000
        2989000	      2987	800001d8	bfe5	c.j	800001d0	
        2990000	      2988	800001d0	00002f17	auipc	x30,0x2	 x30=0x800021d0
        2992000	      2990	800001d4	e23f2823	sw	x3,-464(x30)	 x30:0x800021d0  x3:0x00000001 PA:0x80002000 store:0x00000001 load:0x00000000
        2994000	      2992	800001d8	bfe5	c.j	800001d0	
        2995000	      2993	800001d0	00002f17	auipc	x30,0x2	 x30=0x800021d0
        2997000	      2995	800001d4	e23f2823	sw	x3,-464(x30)	 x30:0x800021d0  x3:0x00000001 PA:0x80002000 store:0x00000001 load:0x00000000
        2999000	      2997	800001d8	bfe5	c.j	800001d0	
        3000000	      2998	800001d0	00002f17	auipc	x30,0x2	 x30=0x800021d0
        3002000	      3000	800001d4	e23f2823	sw	x3,-464(x30)	 x30:0x800021d0  x3:0x00000001 PA:0x80002000 store:0x00000001 load:0x00000000
        3004000	      3002	800001d8	bfe5	c.j	800001d0	
        3005000	      3003	800001d0	00002f17	auipc	x30,0x2	 x30=0x800021d0
        3007000	      3005	800001d4	e23f2823	sw	x3,-464(x30)	 x30:0x800021d0  x3:0x00000001 PA:0x80002000 store:0x00000001 load:0x00000000
        3009000	      3007	800001d8	bfe5	c.j	800001d0	
        3010000	      3008	800001d0	00002f17	auipc	x30,0x2	 x30=0x800021d0
        3012000	      3010	800001d4	e23f2823	sw	x3,-464(x30)	 x30:0x800021d0  x3:0x00000001 PA:0x80002000 store:0x00000001 load:0x00000000
        3014000	      3012	800001d8	bfe5	c.j	800001d0	
        3015000	      3013	800001d0	00002f17	auipc	x30,0x2	 x30=0x800021d0
        3017000	      3015	800001d4	e23f2823	sw	x3,-464(x30)	 x30:0x800021d0  x3:0x00000001 PA:0x80002000 store:0x00000001 load:0x00000000
        3019000	      3017	800001d8	bfe5	c.j	800001d0	
        3020000	      3018	800001d0	00002f17	auipc	x30,0x2	 x30=0x800021d0
        3022000	      3020	800001d4	e23f2823	sw	x3,-464(x30)	 x30:0x800021d0  x3:0x00000001 PA:0x80002000 store:0x00000001 load:0x00000000
        3024000	      3022	800001d8	bfe5	c.j	800001d0	
        3025000	      3023	800001d0	00002f17	auipc	x30,0x2	 x30=0x800021d0
        3027000	      3025	800001d4	e23f2823	sw	x3,-464(x30)	 x30:0x800021d0  x3:0x00000001 PA:0x80002000 store:0x00000001 load:0x00000000
        3029000	      3027	800001d8	bfe5	c.j	800001d0	
        3030000	      3028	800001d0	00002f17	auipc	x30,0x2	 x30=0x800021d0
        3032000	      3030	800001d4	e23f2823	sw	x3,-464(x30)	 x30:0x800021d0  x3:0x00000001 PA:0x80002000 store:0x00000001 load:0x00000000
        3034000	      3032	800001d8	bfe5	c.j	800001d0	
        3035000	      3033	800001d0	00002f17	auipc	x30,0x2	 x30=0x800021d0
        3037000	      3035	800001d4	e23f2823	sw	x3,-464(x30)	 x30:0x800021d0  x3:0x00000001 PA:0x80002000 store:0x00000001 load:0x00000000
        3039000	      3037	800001d8	bfe5	c.j	800001d0	
        3040000	      3038	800001d0	00002f17	auipc	x30,0x2	 x30=0x800021d0
        3042000	      3040	800001d4	e23f2823	sw	x3,-464(x30)	 x30:0x800021d0  x3:0x00000001 PA:0x80002000 store:0x00000001 load:0x00000000
        3044000	      3042	800001d8	bfe5	c.j	800001d0	
        3045000	      3043	800001d0	00002f17	auipc	x30,0x2	 x30=0x800021d0
        3047000	      3045	800001d4	e23f2823	sw	x3,-464(x30)	 x30:0x800021d0  x3:0x00000001 PA:0x80002000 store:0x00000001 load:0x00000000
        3049000	      3047	800001d8	bfe5	c.j	800001d0	
        3050000	      3048	800001d0	00002f17	auipc	x30,0x2	 x30=0x800021d0
        3052000	      3050	800001d4	e23f2823	sw	x3,-464(x30)	 x30:0x800021d0  x3:0x00000001 PA:0x80002000 store:0x00000001 load:0x00000000
        3054000	      3052	800001d8	bfe5	c.j	800001d0	
        3055000	      3053	800001d0	00002f17	auipc	x30,0x2	 x30=0x800021d0
        3057000	      3055	800001d4	e23f2823	sw	x3,-464(x30)	 x30:0x800021d0  x3:0x00000001 PA:0x80002000 store:0x00000001 load:0x00000000
        3059000	      3057	800001d8	bfe5	c.j	800001d0	
        3060000	      3058	800001d0	00002f17	auipc	x30,0x2	 x30=0x800021d0
        3062000	      3060	800001d4	e23f2823	sw	x3,-464(x30)	 x30:0x800021d0  x3:0x00000001 PA:0x80002000 store:0x00000001 load:0x00000000
        3064000	      3062	800001d8	bfe5	c.j	800001d0	
        3065000	      3063	800001d0	00002f17	auipc	x30,0x2	 x30=0x800021d0
        3067000	      3065	800001d4	e23f2823	sw	x3,-464(x30)	 x30:0x800021d0  x3:0x00000001 PA:0x80002000 store:0x00000001 load:0x00000000
        3069000	      3067	800001d8	bfe5	c.j	800001d0	
        3070000	      3068	800001d0	00002f17	auipc	x30,0x2	 x30=0x800021d0
        3072000	      3070	800001d4	e23f2823	sw	x3,-464(x30)	 x30:0x800021d0  x3:0x00000001 PA:0x80002000 store:0x00000001 load:0x00000000
        3074000	      3072	800001d8	bfe5	c.j	800001d0	
        3075000	      3073	800001d0	00002f17	auipc	x30,0x2	 x30=0x800021d0
        3077000	      3075	800001d4	e23f2823	sw	x3,-464(x30)	 x30:0x800021d0  x3:0x00000001 PA:0x80002000 store:0x00000001 load:0x00000000
        3079000	      3077	800001d8	bfe5	c.j	800001d0	
        3080000	      3078	800001d0	00002f17	auipc	x30,0x2	 x30=0x800021d0
        3082000	      3080	800001d4	e23f2823	sw	x3,-464(x30)	 x30:0x800021d0  x3:0x00000001 PA:0x80002000 store:0x00000001 load:0x00000000
        3084000	      3082	800001d8	bfe5	c.j	800001d0	
        3085000	      3083	800001d0	00002f17	auipc	x30,0x2	 x30=0x800021d0
        3087000	      3085	800001d4	e23f2823	sw	x3,-464(x30)	 x30:0x800021d0  x3:0x00000001 PA:0x80002000 store:0x00000001 load:0x00000000
        3089000	      3087	800001d8	bfe5	c.j	800001d0	
        3090000	      3088	800001d0	00002f17	auipc	x30,0x2	 x30=0x800021d0
        3092000	      3090	800001d4	e23f2823	sw	x3,-464(x30)	 x30:0x800021d0  x3:0x00000001 PA:0x80002000 store:0x00000001 load:0x00000000
        3094000	      3092	800001d8	bfe5	c.j	800001d0	
        3095000	      3093	800001d0	00002f17	auipc	x30,0x2	 x30=0x800021d0
        3097000	      3095	800001d4	e23f2823	sw	x3,-464(x30)	 x30:0x800021d0  x3:0x00000001 PA:0x80002000 store:0x00000001 load:0x00000000
        3099000	      3097	800001d8	bfe5	c.j	800001d0	
        3100000	      3098	800001d0	00002f17	auipc	x30,0x2	 x30=0x800021d0
        3102000	      3100	800001d4	e23f2823	sw	x3,-464(x30)	 x30:0x800021d0  x3:0x00000001 PA:0x80002000 store:0x00000001 load:0x00000000
        3104000	      3102	800001d8	bfe5	c.j	800001d0	
        3105000	      3103	800001d0	00002f17	auipc	x30,0x2	 x30=0x800021d0
        3107000	      3105	800001d4	e23f2823	sw	x3,-464(x30)	 x30:0x800021d0  x3:0x00000001 PA:0x80002000 store:0x00000001 load:0x00000000
        3109000	      3107	800001d8	bfe5	c.j	800001d0	
        3110000	      3108	800001d0	00002f17	auipc	x30,0x2	 x30=0x800021d0
        3112000	      3110	800001d4	e23f2823	sw	x3,-464(x30)	 x30:0x800021d0  x3:0x00000001 PA:0x80002000 store:0x00000001 load:0x00000000
        3114000	      3112	800001d8	bfe5	c.j	800001d0	
        3115000	      3113	800001d0	00002f17	auipc	x30,0x2	 x30=0x800021d0
        3117000	      3115	800001d4	e23f2823	sw	x3,-464(x30)	 x30:0x800021d0  x3:0x00000001 PA:0x80002000 store:0x00000001 load:0x00000000
        3119000	      3117	800001d8	bfe5	c.j	800001d0	
        3120000	      3118	800001d0	00002f17	auipc	x30,0x2	 x30=0x800021d0
        3122000	      3120	800001d4	e23f2823	sw	x3,-464(x30)	 x30:0x800021d0  x3:0x00000001 PA:0x80002000 store:0x00000001 load:0x00000000
        3124000	      3122	800001d8	bfe5	c.j	800001d0	
        3125000	      3123	800001d0	00002f17	auipc	x30,0x2	 x30=0x800021d0
        3127000	      3125	800001d4	e23f2823	sw	x3,-464(x30)	 x30:0x800021d0  x3:0x00000001 PA:0x80002000 store:0x00000001 load:0x00000000
        3129000	      3127	800001d8	bfe5	c.j	800001d0	
        3130000	      3128	800001d0	00002f17	auipc	x30,0x2	 x30=0x800021d0
        3132000	      3130	800001d4	e23f2823	sw	x3,-464(x30)	 x30:0x800021d0  x3:0x00000001 PA:0x80002000 store:0x00000001 load:0x00000000
        3134000	      3132	800001d8	bfe5	c.j	800001d0	
        3135000	      3133	800001d0	00002f17	auipc	x30,0x2	 x30=0x800021d0
        3137000	      3135	800001d4	e23f2823	sw	x3,-464(x30)	 x30:0x800021d0  x3:0x00000001 PA:0x80002000 store:0x00000001 load:0x00000000
        3139000	      3137	800001d8	bfe5	c.j	800001d0	
        3140000	      3138	800001d0	00002f17	auipc	x30,0x2	 x30=0x800021d0
        3142000	      3140	800001d4	e23f2823	sw	x3,-464(x30)	 x30:0x800021d0  x3:0x00000001 PA:0x80002000 store:0x00000001 load:0x00000000
        3144000	      3142	800001d8	bfe5	c.j	800001d0	
        3145000	      3143	800001d0	00002f17	auipc	x30,0x2	 x30=0x800021d0
        3147000	      3145	800001d4	e23f2823	sw	x3,-464(x30)	 x30:0x800021d0  x3:0x00000001 PA:0x80002000 store:0x00000001 load:0x00000000
        3149000	      3147	800001d8	bfe5	c.j	800001d0	
        3150000	      3148	800001d0	00002f17	auipc	x30,0x2	 x30=0x800021d0
        3152000	      3150	800001d4	e23f2823	sw	x3,-464(x30)	 x30:0x800021d0  x3:0x00000001 PA:0x80002000 store:0x00000001 load:0x00000000
        3154000	      3152	800001d8	bfe5	c.j	800001d0	
        3155000	      3153	800001d0	00002f17	auipc	x30,0x2	 x30=0x800021d0
        3157000	      3155	800001d4	e23f2823	sw	x3,-464(x30)	 x30:0x800021d0  x3:0x00000001 PA:0x80002000 store:0x00000001 load:0x00000000
        3159000	      3157	800001d8	bfe5	c.j	800001d0	
        3160000	      3158	800001d0	00002f17	auipc	x30,0x2	 x30=0x800021d0
        3162000	      3160	800001d4	e23f2823	sw	x3,-464(x30)	 x30:0x800021d0  x3:0x00000001 PA:0x80002000 store:0x00000001 load:0x00000000
        3164000	      3162	800001d8	bfe5	c.j	800001d0	
        3165000	      3163	800001d0	00002f17	auipc	x30,0x2	 x30=0x800021d0
        3167000	      3165	800001d4	e23f2823	sw	x3,-464(x30)	 x30:0x800021d0  x3:0x00000001 PA:0x80002000 store:0x00000001 load:0x00000000
        3169000	      3167	800001d8	bfe5	c.j	800001d0	
        3170000	      3168	800001d0	00002f17	auipc	x30,0x2	 x30=0x800021d0
        3172000	      3170	800001d4	e23f2823	sw	x3,-464(x30)	 x30:0x800021d0  x3:0x00000001 PA:0x80002000 store:0x00000001 load:0x00000000
        3174000	      3172	800001d8	bfe5	c.j	800001d0	
        3175000	      3173	800001d0	00002f17	auipc	x30,0x2	 x30=0x800021d0
        3177000	      3175	800001d4	e23f2823	sw	x3,-464(x30)	 x30:0x800021d0  x3:0x00000001 PA:0x80002000 store:0x00000001 load:0x00000000
        3179000	      3177	800001d8	bfe5	c.j	800001d0	
        3180000	      3178	800001d0	00002f17	auipc	x30,0x2	 x30=0x800021d0
        3182000	      3180	800001d4	e23f2823	sw	x3,-464(x30)	 x30:0x800021d0  x3:0x00000001 PA:0x80002000 store:0x00000001 load:0x00000000
        3184000	      3182	800001d8	bfe5	c.j	800001d0	
        3185000	      3183	800001d0	00002f17	auipc	x30,0x2	 x30=0x800021d0
        3187000	      3185	800001d4	e23f2823	sw	x3,-464(x30)	 x30:0x800021d0  x3:0x00000001 PA:0x80002000 store:0x00000001 load:0x00000000
        3189000	      3187	800001d8	bfe5	c.j	800001d0	
        3190000	      3188	800001d0	00002f17	auipc	x30,0x2	 x30=0x800021d0
        3192000	      3190	800001d4	e23f2823	sw	x3,-464(x30)	 x30:0x800021d0  x3:0x00000001 PA:0x80002000 store:0x00000001 load:0x00000000
        3194000	      3192	800001d8	bfe5	c.j	800001d0	
        3195000	      3193	800001d0	00002f17	auipc	x30,0x2	 x30=0x800021d0
        3197000	      3195	800001d4	e23f2823	sw	x3,-464(x30)	 x30:0x800021d0  x3:0x00000001 PA:0x80002000 store:0x00000001 load:0x00000000
        3199000	      3197	800001d8	bfe5	c.j	800001d0	
        3200000	      3198	800001d0	00002f17	auipc	x30,0x2	 x30=0x800021d0
        3202000	      3200	800001d4	e23f2823	sw	x3,-464(x30)	 x30:0x800021d0  x3:0x00000001 PA:0x80002000 store:0x00000001 load:0x00000000
        3204000	      3202	800001d8	bfe5	c.j	800001d0	
        3205000	      3203	800001d0	00002f17	auipc	x30,0x2	 x30=0x800021d0
        3207000	      3205	800001d4	e23f2823	sw	x3,-464(x30)	 x30:0x800021d0  x3:0x00000001 PA:0x80002000 store:0x00000001 load:0x00000000
        3209000	      3207	800001d8	bfe5	c.j	800001d0	
        3210000	      3208	800001d0	00002f17	auipc	x30,0x2	 x30=0x800021d0
        3212000	      3210	800001d4	e23f2823	sw	x3,-464(x30)	 x30:0x800021d0  x3:0x00000001 PA:0x80002000 store:0x00000001 load:0x00000000
        3214000	      3212	800001d8	bfe5	c.j	800001d0	
        3215000	      3213	800001d0	00002f17	auipc	x30,0x2	 x30=0x800021d0
        3217000	      3215	800001d4	e23f2823	sw	x3,-464(x30)	 x30:0x800021d0  x3:0x00000001 PA:0x80002000 store:0x00000001 load:0x00000000
        3219000	      3217	800001d8	bfe5	c.j	800001d0	
        3220000	      3218	800001d0	00002f17	auipc	x30,0x2	 x30=0x800021d0
        3222000	      3220	800001d4	e23f2823	sw	x3,-464(x30)	 x30:0x800021d0  x3:0x00000001 PA:0x80002000 store:0x00000001 load:0x00000000
        3224000	      3222	800001d8	bfe5	c.j	800001d0	
        3225000	      3223	800001d0	00002f17	auipc	x30,0x2	 x30=0x800021d0
        3227000	      3225	800001d4	e23f2823	sw	x3,-464(x30)	 x30:0x800021d0  x3:0x00000001 PA:0x80002000 store:0x00000001 load:0x00000000
        3229000	      3227	800001d8	bfe5	c.j	800001d0	
        3230000	      3228	800001d0	00002f17	auipc	x30,0x2	 x30=0x800021d0
        3232000	      3230	800001d4	e23f2823	sw	x3,-464(x30)	 x30:0x800021d0  x3:0x00000001 PA:0x80002000 store:0x00000001 load:0x00000000
        3234000	      3232	800001d8	bfe5	c.j	800001d0	
        3235000	      3233	800001d0	00002f17	auipc	x30,0x2	 x30=0x800021d0
        3237000	      3235	800001d4	e23f2823	sw	x3,-464(x30)	 x30:0x800021d0  x3:0x00000001 PA:0x80002000 store:0x00000001 load:0x00000000
        3239000	      3237	800001d8	bfe5	c.j	800001d0	
        3240000	      3238	800001d0	00002f17	auipc	x30,0x2	 x30=0x800021d0
        3242000	      3240	800001d4	e23f2823	sw	x3,-464(x30)	 x30:0x800021d0  x3:0x00000001 PA:0x80002000 store:0x00000001 load:0x00000000
        3244000	      3242	800001d8	bfe5	c.j	800001d0	
        3245000	      3243	800001d0	00002f17	auipc	x30,0x2	 x30=0x800021d0
        3247000	      3245	800001d4	e23f2823	sw	x3,-464(x30)	 x30:0x800021d0  x3:0x00000001 PA:0x80002000 store:0x00000001 load:0x00000000
        3249000	      3247	800001d8	bfe5	c.j	800001d0	
        3250000	      3248	800001d0	00002f17	auipc	x30,0x2	 x30=0x800021d0
        3252000	      3250	800001d4	e23f2823	sw	x3,-464(x30)	 x30:0x800021d0  x3:0x00000001 PA:0x80002000 store:0x00000001 load:0x00000000
        3254000	      3252	800001d8	bfe5	c.j	800001d0	
        3255000	      3253	800001d0	00002f17	auipc	x30,0x2	 x30=0x800021d0
        3257000	      3255	800001d4	e23f2823	sw	x3,-464(x30)	 x30:0x800021d0  x3:0x00000001 PA:0x80002000 store:0x00000001 load:0x00000000
        3259000	      3257	800001d8	bfe5	c.j	800001d0	
        3260000	      3258	800001d0	00002f17	auipc	x30,0x2	 x30=0x800021d0
        3262000	      3260	800001d4	e23f2823	sw	x3,-464(x30)	 x30:0x800021d0  x3:0x00000001 PA:0x80002000 store:0x00000001 load:0x00000000
        3264000	      3262	800001d8	bfe5	c.j	800001d0	
        3265000	      3263	800001d0	00002f17	auipc	x30,0x2	 x30=0x800021d0
        3267000	      3265	800001d4	e23f2823	sw	x3,-464(x30)	 x30:0x800021d0  x3:0x00000001 PA:0x80002000 store:0x00000001 load:0x00000000
        3269000	      3267	800001d8	bfe5	c.j	800001d0	
        3270000	      3268	800001d0	00002f17	auipc	x30,0x2	 x30=0x800021d0
        3272000	      3270	800001d4	e23f2823	sw	x3,-464(x30)	 x30:0x800021d0  x3:0x00000001 PA:0x80002000 store:0x00000001 load:0x00000000
        3274000	      3272	800001d8	bfe5	c.j	800001d0	
        3275000	      3273	800001d0	00002f17	auipc	x30,0x2	 x30=0x800021d0
        3277000	      3275	800001d4	e23f2823	sw	x3,-464(x30)	 x30:0x800021d0  x3:0x00000001 PA:0x80002000 store:0x00000001 load:0x00000000
        3279000	      3277	800001d8	bfe5	c.j	800001d0	
        3280000	      3278	800001d0	00002f17	auipc	x30,0x2	 x30=0x800021d0
        3282000	      3280	800001d4	e23f2823	sw	x3,-464(x30)	 x30:0x800021d0  x3:0x00000001 PA:0x80002000 store:0x00000001 load:0x00000000
        3284000	      3282	800001d8	bfe5	c.j	800001d0	
        3285000	      3283	800001d0	00002f17	auipc	x30,0x2	 x30=0x800021d0
        3287000	      3285	800001d4	e23f2823	sw	x3,-464(x30)	 x30:0x800021d0  x3:0x00000001 PA:0x80002000 store:0x00000001 load:0x00000000
        3289000	      3287	800001d8	bfe5	c.j	800001d0	
        3290000	      3288	800001d0	00002f17	auipc	x30,0x2	 x30=0x800021d0
        3292000	      3290	800001d4	e23f2823	sw	x3,-464(x30)	 x30:0x800021d0  x3:0x00000001 PA:0x80002000 store:0x00000001 load:0x00000000
        3294000	      3292	800001d8	bfe5	c.j	800001d0	
        3295000	      3293	800001d0	00002f17	auipc	x30,0x2	 x30=0x800021d0
        3297000	      3295	800001d4	e23f2823	sw	x3,-464(x30)	 x30:0x800021d0  x3:0x00000001 PA:0x80002000 store:0x00000001 load:0x00000000
        3299000	      3297	800001d8	bfe5	c.j	800001d0	
        3300000	      3298	800001d0	00002f17	auipc	x30,0x2	 x30=0x800021d0
        3302000	      3300	800001d4	e23f2823	sw	x3,-464(x30)	 x30:0x800021d0  x3:0x00000001 PA:0x80002000 store:0x00000001 load:0x00000000
        3304000	      3302	800001d8	bfe5	c.j	800001d0	
        3305000	      3303	800001d0	00002f17	auipc	x30,0x2	 x30=0x800021d0
        3307000	      3305	800001d4	e23f2823	sw	x3,-464(x30)	 x30:0x800021d0  x3:0x00000001 PA:0x80002000 store:0x00000001 load:0x00000000
        3309000	      3307	800001d8	bfe5	c.j	800001d0	
        3310000	      3308	800001d0	00002f17	auipc	x30,0x2	 x30=0x800021d0
        3312000	      3310	800001d4	e23f2823	sw	x3,-464(x30)	 x30:0x800021d0  x3:0x00000001 PA:0x80002000 store:0x00000001 load:0x00000000
        3314000	      3312	800001d8	bfe5	c.j	800001d0	
        3315000	      3313	800001d0	00002f17	auipc	x30,0x2	 x30=0x800021d0
        3317000	      3315	800001d4	e23f2823	sw	x3,-464(x30)	 x30:0x800021d0  x3:0x00000001 PA:0x80002000 store:0x00000001 load:0x00000000
        3319000	      3317	800001d8	bfe5	c.j	800001d0	
        3320000	      3318	800001d0	00002f17	auipc	x30,0x2	 x30=0x800021d0
        3322000	      3320	800001d4	e23f2823	sw	x3,-464(x30)	 x30:0x800021d0  x3:0x00000001 PA:0x80002000 store:0x00000001 load:0x00000000
        3324000	      3322	800001d8	bfe5	c.j	800001d0	
        3325000	      3323	800001d0	00002f17	auipc	x30,0x2	 x30=0x800021d0
        3327000	      3325	800001d4	e23f2823	sw	x3,-464(x30)	 x30:0x800021d0  x3:0x00000001 PA:0x80002000 store:0x00000001 load:0x00000000
        3329000	      3327	800001d8	bfe5	c.j	800001d0	
        3330000	      3328	800001d0	00002f17	auipc	x30,0x2	 x30=0x800021d0
        3332000	      3330	800001d4	e23f2823	sw	x3,-464(x30)	 x30:0x800021d0  x3:0x00000001 PA:0x80002000 store:0x00000001 load:0x00000000
        3334000	      3332	800001d8	bfe5	c.j	800001d0	
        3335000	      3333	800001d0	00002f17	auipc	x30,0x2	 x30=0x800021d0
        3337000	      3335	800001d4	e23f2823	sw	x3,-464(x30)	 x30:0x800021d0  x3:0x00000001 PA:0x80002000 store:0x00000001 load:0x00000000
        3339000	      3337	800001d8	bfe5	c.j	800001d0	
        3340000	      3338	800001d0	00002f17	auipc	x30,0x2	 x30=0x800021d0
        3342000	      3340	800001d4	e23f2823	sw	x3,-464(x30)	 x30:0x800021d0  x3:0x00000001 PA:0x80002000 store:0x00000001 load:0x00000000
        3344000	      3342	800001d8	bfe5	c.j	800001d0	
        3345000	      3343	800001d0	00002f17	auipc	x30,0x2	 x30=0x800021d0
        3347000	      3345	800001d4	e23f2823	sw	x3,-464(x30)	 x30:0x800021d0  x3:0x00000001 PA:0x80002000 store:0x00000001 load:0x00000000
        3349000	      3347	800001d8	bfe5	c.j	800001d0	
        3350000	      3348	800001d0	00002f17	auipc	x30,0x2	 x30=0x800021d0
        3352000	      3350	800001d4	e23f2823	sw	x3,-464(x30)	 x30:0x800021d0  x3:0x00000001 PA:0x80002000 store:0x00000001 load:0x00000000
        3354000	      3352	800001d8	bfe5	c.j	800001d0	
        3355000	      3353	800001d0	00002f17	auipc	x30,0x2	 x30=0x800021d0
        3357000	      3355	800001d4	e23f2823	sw	x3,-464(x30)	 x30:0x800021d0  x3:0x00000001 PA:0x80002000 store:0x00000001 load:0x00000000
        3359000	      3357	800001d8	bfe5	c.j	800001d0	
        3360000	      3358	800001d0	00002f17	auipc	x30,0x2	 x30=0x800021d0
        3362000	      3360	800001d4	e23f2823	sw	x3,-464(x30)	 x30:0x800021d0  x3:0x00000001 PA:0x80002000 store:0x00000001 load:0x00000000
        3364000	      3362	800001d8	bfe5	c.j	800001d0	
        3365000	      3363	800001d0	00002f17	auipc	x30,0x2	 x30=0x800021d0
        3367000	      3365	800001d4	e23f2823	sw	x3,-464(x30)	 x30:0x800021d0  x3:0x00000001 PA:0x80002000 store:0x00000001 load:0x00000000
        3369000	      3367	800001d8	bfe5	c.j	800001d0	
        3370000	      3368	800001d0	00002f17	auipc	x30,0x2	 x30=0x800021d0
        3372000	      3370	800001d4	e23f2823	sw	x3,-464(x30)	 x30:0x800021d0  x3:0x00000001 PA:0x80002000 store:0x00000001 load:0x00000000
        3374000	      3372	800001d8	bfe5	c.j	800001d0	
        3375000	      3373	800001d0	00002f17	auipc	x30,0x2	 x30=0x800021d0
        3377000	      3375	800001d4	e23f2823	sw	x3,-464(x30)	 x30:0x800021d0  x3:0x00000001 PA:0x80002000 store:0x00000001 load:0x00000000
        3379000	      3377	800001d8	bfe5	c.j	800001d0	
        3380000	      3378	800001d0	00002f17	auipc	x30,0x2	 x30=0x800021d0
        3382000	      3380	800001d4	e23f2823	sw	x3,-464(x30)	 x30:0x800021d0  x3:0x00000001 PA:0x80002000 store:0x00000001 load:0x00000000
        3384000	      3382	800001d8	bfe5	c.j	800001d0	
        3385000	      3383	800001d0	00002f17	auipc	x30,0x2	 x30=0x800021d0
        3387000	      3385	800001d4	e23f2823	sw	x3,-464(x30)	 x30:0x800021d0  x3:0x00000001 PA:0x80002000 store:0x00000001 load:0x00000000
        3389000	      3387	800001d8	bfe5	c.j	800001d0	
        3390000	      3388	800001d0	00002f17	auipc	x30,0x2	 x30=0x800021d0
        3392000	      3390	800001d4	e23f2823	sw	x3,-464(x30)	 x30:0x800021d0  x3:0x00000001 PA:0x80002000 store:0x00000001 load:0x00000000
        3394000	      3392	800001d8	bfe5	c.j	800001d0	
        3395000	      3393	800001d0	00002f17	auipc	x30,0x2	 x30=0x800021d0
        3397000	      3395	800001d4	e23f2823	sw	x3,-464(x30)	 x30:0x800021d0  x3:0x00000001 PA:0x80002000 store:0x00000001 load:0x00000000
        3399000	      3397	800001d8	bfe5	c.j	800001d0	
        3400000	      3398	800001d0	00002f17	auipc	x30,0x2	 x30=0x800021d0
        3402000	      3400	800001d4	e23f2823	sw	x3,-464(x30)	 x30:0x800021d0  x3:0x00000001 PA:0x80002000 store:0x00000001 load:0x00000000
        3404000	      3402	800001d8	bfe5	c.j	800001d0	
        3405000	      3403	800001d0	00002f17	auipc	x30,0x2	 x30=0x800021d0
        3407000	      3405	800001d4	e23f2823	sw	x3,-464(x30)	 x30:0x800021d0  x3:0x00000001 PA:0x80002000 store:0x00000001 load:0x00000000
        3409000	      3407	800001d8	bfe5	c.j	800001d0	
        3410000	      3408	800001d0	00002f17	auipc	x30,0x2	 x30=0x800021d0
        3412000	      3410	800001d4	e23f2823	sw	x3,-464(x30)	 x30:0x800021d0  x3:0x00000001 PA:0x80002000 store:0x00000001 load:0x00000000
        3414000	      3412	800001d8	bfe5	c.j	800001d0	
        3415000	      3413	800001d0	00002f17	auipc	x30,0x2	 x30=0x800021d0
        3417000	      3415	800001d4	e23f2823	sw	x3,-464(x30)	 x30:0x800021d0  x3:0x00000001 PA:0x80002000 store:0x00000001 load:0x00000000
        3419000	      3417	800001d8	bfe5	c.j	800001d0	
        3420000	      3418	800001d0	00002f17	auipc	x30,0x2	 x30=0x800021d0
        3422000	      3420	800001d4	e23f2823	sw	x3,-464(x30)	 x30:0x800021d0  x3:0x00000001 PA:0x80002000 store:0x00000001 load:0x00000000
        3424000	      3422	800001d8	bfe5	c.j	800001d0	
        3425000	      3423	800001d0	00002f17	auipc	x30,0x2	 x30=0x800021d0
        3427000	      3425	800001d4	e23f2823	sw	x3,-464(x30)	 x30:0x800021d0  x3:0x00000001 PA:0x80002000 store:0x00000001 load:0x00000000
        3429000	      3427	800001d8	bfe5	c.j	800001d0	
        3430000	      3428	800001d0	00002f17	auipc	x30,0x2	 x30=0x800021d0
        3432000	      3430	800001d4	e23f2823	sw	x3,-464(x30)	 x30:0x800021d0  x3:0x00000001 PA:0x80002000 store:0x00000001 load:0x00000000
        3434000	      3432	800001d8	bfe5	c.j	800001d0	
        3435000	      3433	800001d0	00002f17	auipc	x30,0x2	 x30=0x800021d0
        3437000	      3435	800001d4	e23f2823	sw	x3,-464(x30)	 x30:0x800021d0  x3:0x00000001 PA:0x80002000 store:0x00000001 load:0x00000000
        3439000	      3437	800001d8	bfe5	c.j	800001d0	
        3440000	      3438	800001d0	00002f17	auipc	x30,0x2	 x30=0x800021d0
        3442000	      3440	800001d4	e23f2823	sw	x3,-464(x30)	 x30:0x800021d0  x3:0x00000001 PA:0x80002000 store:0x00000001 load:0x00000000
        3444000	      3442	800001d8	bfe5	c.j	800001d0	
        3445000	      3443	800001d0	00002f17	auipc	x30,0x2	 x30=0x800021d0
        3447000	      3445	800001d4	e23f2823	sw	x3,-464(x30)	 x30:0x800021d0  x3:0x00000001 PA:0x80002000 store:0x00000001 load:0x00000000
        3449000	      3447	800001d8	bfe5	c.j	800001d0	
        3450000	      3448	800001d0	00002f17	auipc	x30,0x2	 x30=0x800021d0
        3452000	      3450	800001d4	e23f2823	sw	x3,-464(x30)	 x30:0x800021d0  x3:0x00000001 PA:0x80002000 store:0x00000001 load:0x00000000
        3454000	      3452	800001d8	bfe5	c.j	800001d0	
        3455000	      3453	800001d0	00002f17	auipc	x30,0x2	 x30=0x800021d0
        3457000	      3455	800001d4	e23f2823	sw	x3,-464(x30)	 x30:0x800021d0  x3:0x00000001 PA:0x80002000 store:0x00000001 load:0x00000000
        3459000	      3457	800001d8	bfe5	c.j	800001d0	
        3460000	      3458	800001d0	00002f17	auipc	x30,0x2	 x30=0x800021d0
        3462000	      3460	800001d4	e23f2823	sw	x3,-464(x30)	 x30:0x800021d0  x3:0x00000001 PA:0x80002000 store:0x00000001 load:0x00000000
        3464000	      3462	800001d8	bfe5	c.j	800001d0	
        3465000	      3463	800001d0	00002f17	auipc	x30,0x2	 x30=0x800021d0
        3467000	      3465	800001d4	e23f2823	sw	x3,-464(x30)	 x30:0x800021d0  x3:0x00000001 PA:0x80002000 store:0x00000001 load:0x00000000
        3469000	      3467	800001d8	bfe5	c.j	800001d0	
        3470000	      3468	800001d0	00002f17	auipc	x30,0x2	 x30=0x800021d0
        3472000	      3470	800001d4	e23f2823	sw	x3,-464(x30)	 x30:0x800021d0  x3:0x00000001 PA:0x80002000 store:0x00000001 load:0x00000000
        3474000	      3472	800001d8	bfe5	c.j	800001d0	
        3475000	      3473	800001d0	00002f17	auipc	x30,0x2	 x30=0x800021d0
        3477000	      3475	800001d4	e23f2823	sw	x3,-464(x30)	 x30:0x800021d0  x3:0x00000001 PA:0x80002000 store:0x00000001 load:0x00000000
        3479000	      3477	800001d8	bfe5	c.j	800001d0	
        3480000	      3478	800001d0	00002f17	auipc	x30,0x2	 x30=0x800021d0
        3482000	      3480	800001d4	e23f2823	sw	x3,-464(x30)	 x30:0x800021d0  x3:0x00000001 PA:0x80002000 store:0x00000001 load:0x00000000
        3484000	      3482	800001d8	bfe5	c.j	800001d0	
        3485000	      3483	800001d0	00002f17	auipc	x30,0x2	 x30=0x800021d0
        3487000	      3485	800001d4	e23f2823	sw	x3,-464(x30)	 x30:0x800021d0  x3:0x00000001 PA:0x80002000 store:0x00000001 load:0x00000000
        3489000	      3487	800001d8	bfe5	c.j	800001d0	
        3490000	      3488	800001d0	00002f17	auipc	x30,0x2	 x30=0x800021d0
        3492000	      3490	800001d4	e23f2823	sw	x3,-464(x30)	 x30:0x800021d0  x3:0x00000001 PA:0x80002000 store:0x00000001 load:0x00000000
        3494000	      3492	800001d8	bfe5	c.j	800001d0	
        3495000	      3493	800001d0	00002f17	auipc	x30,0x2	 x30=0x800021d0
        3497000	      3495	800001d4	e23f2823	sw	x3,-464(x30)	 x30:0x800021d0  x3:0x00000001 PA:0x80002000 store:0x00000001 load:0x00000000
        3499000	      3497	800001d8	bfe5	c.j	800001d0	
        3500000	      3498	800001d0	00002f17	auipc	x30,0x2	 x30=0x800021d0
