Time	Cycle	PC	Insn	Decoded instruction	Register and memory contents
           7000	         5	80000080	0000ca17	auipc	x20,0xc	 x20=0x8000c080
           8000	         6	80000084	c04a0a13	addi	x20,x20,-1020	 x20:0x8000c080 x20=0x8000bc84
           9000	         7	80000088	00000f97	auipc	x31,0x0	 x31=0x80000088
          10000	         8	8000008c	f78f8f93	addi	x31,x31,-136	 x31:0x80000088 x31=0x80000000
          11000	         9	80000090	001fef93	ori	x31,x31,1	 x31:0x80000000 x31=0x80000001
          12000	        10	80000094	305f9073	csrrw	x0,mtvec,x0	  x0:0x00000000  x0=0x00000000
          16000	        14	80000000	6640106f	jal	x0,80001664	  x0=0x00000000
          17000	        15	80001664	340d9df3	csrrw	x27,mscratch,x27	 x27:0x00000000 x27=0x00000000
          18000	        16	80001668	000a0db3	add	x27,x20,x0	 x20:0x8000bc84  x0:0x00000000 x27=0x8000bc84
          19000	        17	8000166c	f84d8d93	addi	x27,x27,-124	 x27:0x8000bc84 x27=0x8000bc08
          21000	        19	80001670	001da223	sw	x1,4(x27)	 x27:0x8000bc08  x1:0x00000000 PA:0x8000bc0c store:0x00000000 load:0x00000000
          23000	        21	80001674	002da423	sw	x2,8(x27)	 x27:0x8000bc08  x2:0x00000000 PA:0x8000bc10 store:0x00000000 load:0x00000000
          25000	        23	80001678	003da623	sw	x3,12(x27)	 x27:0x8000bc08  x3:0x00000000 PA:0x8000bc14 store:0x00000000 load:0x00000000
          27000	        25	8000167c	004da823	sw	x4,16(x27)	 x27:0x8000bc08  x4:0x00000000 PA:0x8000bc18 store:0x00000000 load:0x00000000
          29000	        27	80001680	005daa23	sw	x5,20(x27)	 x27:0x8000bc08  x5:0x00000000 PA:0x8000bc1c store:0x00000000 load:0x00000000
          31000	        29	80001684	006dac23	sw	x6,24(x27)	 x27:0x8000bc08  x6:0x00000000 PA:0x8000bc20 store:0x00000000 load:0x00000000
          33000	        31	80001688	007dae23	sw	x7,28(x27)	 x27:0x8000bc08  x7:0x00000000 PA:0x8000bc24 store:0x00000000 load:0x00000000
          35000	        33	8000168c	028da023	sw	x8,32(x27)	 x27:0x8000bc08  x8:0x00000000 PA:0x8000bc28 store:0x00000000 load:0x00000000
          37000	        35	80001690	029da223	sw	x9,36(x27)	 x27:0x8000bc08  x9:0x00000000 PA:0x8000bc2c store:0x00000000 load:0x00000000
          39000	        37	80001694	02ada423	sw	x10,40(x27)	 x27:0x8000bc08 x10:0x00000000 PA:0x8000bc30 store:0x00000000 load:0x00000000
          41000	        39	80001698	02bda623	sw	x11,44(x27)	 x27:0x8000bc08 x11:0x00000000 PA:0x8000bc34 store:0x00000000 load:0x00000000
          43000	        41	8000169c	02cda823	sw	x12,48(x27)	 x27:0x8000bc08 x12:0x00000000 PA:0x8000bc38 store:0x00000000 load:0x00000000
          45000	        43	800016a0	02ddaa23	sw	x13,52(x27)	 x27:0x8000bc08 x13:0x00000000 PA:0x8000bc3c store:0x00000000 load:0x00000000
          47000	        45	800016a4	02edac23	sw	x14,56(x27)	 x27:0x8000bc08 x14:0x00000000 PA:0x8000bc40 store:0x00000000 load:0x00000000
          49000	        47	800016a8	02fdae23	sw	x15,60(x27)	 x27:0x8000bc08 x15:0x00000000 PA:0x8000bc44 store:0x00000000 load:0x00000000
          51000	        49	800016ac	050da023	sw	x16,64(x27)	 x27:0x8000bc08 x16:0x00000000 PA:0x8000bc48 store:0x00000000 load:0x00000000
          53000	        51	800016b0	051da223	sw	x17,68(x27)	 x27:0x8000bc08 x17:0x00000000 PA:0x8000bc4c store:0x00000000 load:0x00000000
          55000	        53	800016b4	052da423	sw	x18,72(x27)	 x27:0x8000bc08 x18:0x00000000 PA:0x8000bc50 store:0x00000000 load:0x00000000
          57000	        55	800016b8	053da623	sw	x19,76(x27)	 x27:0x8000bc08 x19:0x00000000 PA:0x8000bc54 store:0x00000000 load:0x00000000
          59000	        57	800016bc	054da823	sw	x20,80(x27)	 x27:0x8000bc08 x20:0x8000bc84 PA:0x8000bc58 store:0x8000bc84 load:0x00000000
          61000	        59	800016c0	055daa23	sw	x21,84(x27)	 x27:0x8000bc08 x21:0x00000000 PA:0x8000bc5c store:0x00000000 load:0x00000000
          63000	        61	800016c4	056dac23	sw	x22,88(x27)	 x27:0x8000bc08 x22:0x00000000 PA:0x8000bc60 store:0x00000000 load:0x00000000
          65000	        63	800016c8	057dae23	sw	x23,92(x27)	 x27:0x8000bc08 x23:0x00000000 PA:0x8000bc64 store:0x00000000 load:0x00000000
          67000	        65	800016cc	078da023	sw	x24,96(x27)	 x27:0x8000bc08 x24:0x00000000 PA:0x8000bc68 store:0x00000000 load:0x00000000
          69000	        67	800016d0	079da223	sw	x25,100(x27)	 x27:0x8000bc08 x25:0x00000000 PA:0x8000bc6c store:0x00000000 load:0x00000000
          71000	        69	800016d4	07ada423	sw	x26,104(x27)	 x27:0x8000bc08 x26:0x00000000 PA:0x8000bc70 store:0x00000000 load:0x00000000
          73000	        71	800016d8	07bda623	sw	x27,108(x27)	 x27:0x8000bc08 x27:0x8000bc08 PA:0x8000bc74 store:0x8000bc08 load:0x00000000
          75000	        73	800016dc	07cda823	sw	x28,112(x27)	 x27:0x8000bc08 x28:0x00000000 PA:0x8000bc78 store:0x00000000 load:0x00000000
          77000	        75	800016e0	07ddaa23	sw	x29,116(x27)	 x27:0x8000bc08 x29:0x00000000 PA:0x8000bc7c store:0x00000000 load:0x00000000
          79000	        77	800016e4	07edac23	sw	x30,120(x27)	 x27:0x8000bc08 x30:0x00000000 PA:0x8000bc80 store:0x00000000 load:0x00000000
          81000	        79	800016e8	07fdae23	sw	x31,124(x27)	 x27:0x8000bc08 x31:0x80000001 PA:0x8000bc84 store:0x80000001 load:0x00000000
          82000	        80	800016ec	34102ff3	csrrs	x31,mepc,x0	  x0:0x00000000 x31=0x80000094
          83000	        81	800016f0	34202ff3	csrrs	x31,mcause,x0	  x0:0x00000000 x31=0x00000002
          84000	        82	800016f4	492d	c.li	x18,11	 x18=0x0000000b
          85000	        83	800016f6	012f8d63	beq	x31,x18,80001710	 x31:0x00000002 x18:0x0000000b
          86000	        84	800016fa	4909	c.li	x18,2	 x18=0x00000002
          88000	        86	800016fc	0b2f8463	beq	x31,x18,800017a4	 x31:0x00000002 x18:0x00000002
          90000	        88	800017a4	34102ff3	csrrs	x31,mepc,x0	  x0:0x00000000 x31=0x80000094
          91000	        89	800017a8	0f91	c.addi	x31,4	 x31:0x80000094 x31=0x80000098
          92000	        90	800017aa	341f9073	csrrw	x0,mepc,x31	 x31:0x80000098  x0=0x00000000
          94000	        92	800017ae	004da083	lw	x1,4(x27)	 x27:0x8000bc08  x1=0x00000000 PA:0x8000bc0c load:0x00000000
          96000	        94	800017b2	008da103	lw	x2,8(x27)	 x27:0x8000bc08  x2=0x00000000 PA:0x8000bc10 load:0x00000000
          98000	        96	800017b6	00cda183	lw	x3,12(x27)	 x27:0x8000bc08  x3=0x00000000 PA:0x8000bc14 load:0x00000000
         100000	        98	800017ba	010da203	lw	x4,16(x27)	 x27:0x8000bc08  x4=0x00000000 PA:0x8000bc18 load:0x00000000
         102000	       100	800017be	014da283	lw	x5,20(x27)	 x27:0x8000bc08  x5=0x00000000 PA:0x8000bc1c load:0x00000000
         104000	       102	800017c2	018da303	lw	x6,24(x27)	 x27:0x8000bc08  x6=0x00000000 PA:0x8000bc20 load:0x00000000
         106000	       104	800017c6	01cda383	lw	x7,28(x27)	 x27:0x8000bc08  x7=0x00000000 PA:0x8000bc24 load:0x00000000
         108000	       106	800017ca	020da403	lw	x8,32(x27)	 x27:0x8000bc08  x8=0x00000000 PA:0x8000bc28 load:0x00000000
         110000	       108	800017ce	024da483	lw	x9,36(x27)	 x27:0x8000bc08  x9=0x00000000 PA:0x8000bc2c load:0x00000000
         112000	       110	800017d2	028da503	lw	x10,40(x27)	 x27:0x8000bc08 x10=0x00000000 PA:0x8000bc30 load:0x00000000
         114000	       112	800017d6	02cda583	lw	x11,44(x27)	 x27:0x8000bc08 x11=0x00000000 PA:0x8000bc34 load:0x00000000
         116000	       114	800017da	030da603	lw	x12,48(x27)	 x27:0x8000bc08 x12=0x00000000 PA:0x8000bc38 load:0x00000000
         118000	       116	800017de	034da683	lw	x13,52(x27)	 x27:0x8000bc08 x13=0x00000000 PA:0x8000bc3c load:0x00000000
         120000	       118	800017e2	038da703	lw	x14,56(x27)	 x27:0x8000bc08 x14=0x00000000 PA:0x8000bc40 load:0x00000000
         122000	       120	800017e6	03cda783	lw	x15,60(x27)	 x27:0x8000bc08 x15=0x00000000 PA:0x8000bc44 load:0x00000000
         124000	       122	800017ea	040da803	lw	x16,64(x27)	 x27:0x8000bc08 x16=0x00000000 PA:0x8000bc48 load:0x00000000
         126000	       124	800017ee	044da883	lw	x17,68(x27)	 x27:0x8000bc08 x17=0x00000000 PA:0x8000bc4c load:0x00000000
         128000	       126	800017f2	048da903	lw	x18,72(x27)	 x27:0x8000bc08 x18=0x00000000 PA:0x8000bc50 load:0x00000000
         130000	       128	800017f6	04cda983	lw	x19,76(x27)	 x27:0x8000bc08 x19=0x00000000 PA:0x8000bc54 load:0x00000000
         132000	       130	800017fa	050daa03	lw	x20,80(x27)	 x27:0x8000bc08 x20=0x8000bc84 PA:0x8000bc58 load:0x8000bc84
         134000	       132	800017fe	054daa83	lw	x21,84(x27)	 x27:0x8000bc08 x21=0x00000000 PA:0x8000bc5c load:0x00000000
         136000	       134	80001802	058dab03	lw	x22,88(x27)	 x27:0x8000bc08 x22=0x00000000 PA:0x8000bc60 load:0x00000000
         138000	       136	80001806	05cdab83	lw	x23,92(x27)	 x27:0x8000bc08 x23=0x00000000 PA:0x8000bc64 load:0x00000000
         140000	       138	8000180a	060dac03	lw	x24,96(x27)	 x27:0x8000bc08 x24=0x00000000 PA:0x8000bc68 load:0x00000000
         142000	       140	8000180e	064dac83	lw	x25,100(x27)	 x27:0x8000bc08 x25=0x00000000 PA:0x8000bc6c load:0x00000000
         144000	       142	80001812	068dad03	lw	x26,104(x27)	 x27:0x8000bc08 x26=0x00000000 PA:0x8000bc70 load:0x00000000
         146000	       144	80001816	06cdad83	lw	x27,108(x27)	 x27:0x8000bc08 x27=0x8000bc08 PA:0x8000bc74 load:0x8000bc08
         148000	       146	8000181a	070dae03	lw	x28,112(x27)	 x27:0x8000bc08 x28=0x00000000 PA:0x8000bc78 load:0x00000000
         150000	       148	8000181e	074dae83	lw	x29,116(x27)	 x27:0x8000bc08 x29=0x00000000 PA:0x8000bc7c load:0x00000000
         152000	       150	80001822	078daf03	lw	x30,120(x27)	 x27:0x8000bc08 x30=0x00000000 PA:0x8000bc80 load:0x00000000
         154000	       152	80001826	07cdaf83	lw	x31,124(x27)	 x27:0x8000bc08 x31=0x80000001 PA:0x8000bc84 load:0x80000001
         155000	       153	8000182a	07cd8d93	addi	x27,x27,124	 x27:0x8000bc08 x27=0x8000bc84
         156000	       154	8000182e	000d8a33	add	x20,x27,x0	 x27:0x8000bc84  x0:0x00000000 x20=0x8000bc84
         157000	       155	80001832	340d9df3	csrrw	x27,mscratch,x27	 x27:0x8000bc84 x27=0x00000000
         158000	       156	80001836	30200073	mret	
         161000	       159	80000098	00000f97	auipc	x31,0x0	 x31=0x80000098
         162000	       160	8000009c	020f8f93	addi	x31,x31,32	 x31:0x80000098 x31=0x800000b8
         163000	       161	800000a0	341f9073	csrrw	x0,mepc,x0	  x0:0x00000000  x0=0x00000000
         167000	       165	80000000	6640106f	jal	x0,80001664	  x0=0x00000000
         168000	       166	80001664	340d9df3	csrrw	x27,mscratch,x27	 x27:0x00000000 x27=0x8000bc84
         169000	       167	80001668	000a0db3	add	x27,x20,x0	 x20:0x8000bc84  x0:0x00000000 x27=0x8000bc84
         170000	       168	8000166c	f84d8d93	addi	x27,x27,-124	 x27:0x8000bc84 x27=0x8000bc08
         172000	       170	80001670	001da223	sw	x1,4(x27)	 x27:0x8000bc08  x1:0x00000000 PA:0x8000bc0c store:0x00000000 load:0x00000000
         174000	       172	80001674	002da423	sw	x2,8(x27)	 x27:0x8000bc08  x2:0x00000000 PA:0x8000bc10 store:0x00000000 load:0x00000000
         176000	       174	80001678	003da623	sw	x3,12(x27)	 x27:0x8000bc08  x3:0x00000000 PA:0x8000bc14 store:0x00000000 load:0x00000000
         178000	       176	8000167c	004da823	sw	x4,16(x27)	 x27:0x8000bc08  x4:0x00000000 PA:0x8000bc18 store:0x00000000 load:0x00000000
         180000	       178	80001680	005daa23	sw	x5,20(x27)	 x27:0x8000bc08  x5:0x00000000 PA:0x8000bc1c store:0x00000000 load:0x00000000
         182000	       180	80001684	006dac23	sw	x6,24(x27)	 x27:0x8000bc08  x6:0x00000000 PA:0x8000bc20 store:0x00000000 load:0x00000000
         184000	       182	80001688	007dae23	sw	x7,28(x27)	 x27:0x8000bc08  x7:0x00000000 PA:0x8000bc24 store:0x00000000 load:0x00000000
         186000	       184	8000168c	028da023	sw	x8,32(x27)	 x27:0x8000bc08  x8:0x00000000 PA:0x8000bc28 store:0x00000000 load:0x00000000
         188000	       186	80001690	029da223	sw	x9,36(x27)	 x27:0x8000bc08  x9:0x00000000 PA:0x8000bc2c store:0x00000000 load:0x00000000
         190000	       188	80001694	02ada423	sw	x10,40(x27)	 x27:0x8000bc08 x10:0x00000000 PA:0x8000bc30 store:0x00000000 load:0x00000000
         192000	       190	80001698	02bda623	sw	x11,44(x27)	 x27:0x8000bc08 x11:0x00000000 PA:0x8000bc34 store:0x00000000 load:0x00000000
         194000	       192	8000169c	02cda823	sw	x12,48(x27)	 x27:0x8000bc08 x12:0x00000000 PA:0x8000bc38 store:0x00000000 load:0x00000000
         196000	       194	800016a0	02ddaa23	sw	x13,52(x27)	 x27:0x8000bc08 x13:0x00000000 PA:0x8000bc3c store:0x00000000 load:0x00000000
         198000	       196	800016a4	02edac23	sw	x14,56(x27)	 x27:0x8000bc08 x14:0x00000000 PA:0x8000bc40 store:0x00000000 load:0x00000000
         200000	       198	800016a8	02fdae23	sw	x15,60(x27)	 x27:0x8000bc08 x15:0x00000000 PA:0x8000bc44 store:0x00000000 load:0x00000000
         202000	       200	800016ac	050da023	sw	x16,64(x27)	 x27:0x8000bc08 x16:0x00000000 PA:0x8000bc48 store:0x00000000 load:0x00000000
         204000	       202	800016b0	051da223	sw	x17,68(x27)	 x27:0x8000bc08 x17:0x00000000 PA:0x8000bc4c store:0x00000000 load:0x00000000
         206000	       204	800016b4	052da423	sw	x18,72(x27)	 x27:0x8000bc08 x18:0x00000000 PA:0x8000bc50 store:0x00000000 load:0x00000000
         208000	       206	800016b8	053da623	sw	x19,76(x27)	 x27:0x8000bc08 x19:0x00000000 PA:0x8000bc54 store:0x00000000 load:0x00000000
         210000	       208	800016bc	054da823	sw	x20,80(x27)	 x27:0x8000bc08 x20:0x8000bc84 PA:0x8000bc58 store:0x8000bc84 load:0x00000000
         212000	       210	800016c0	055daa23	sw	x21,84(x27)	 x27:0x8000bc08 x21:0x00000000 PA:0x8000bc5c store:0x00000000 load:0x00000000
         214000	       212	800016c4	056dac23	sw	x22,88(x27)	 x27:0x8000bc08 x22:0x00000000 PA:0x8000bc60 store:0x00000000 load:0x00000000
         216000	       214	800016c8	057dae23	sw	x23,92(x27)	 x27:0x8000bc08 x23:0x00000000 PA:0x8000bc64 store:0x00000000 load:0x00000000
         218000	       216	800016cc	078da023	sw	x24,96(x27)	 x27:0x8000bc08 x24:0x00000000 PA:0x8000bc68 store:0x00000000 load:0x00000000
         220000	       218	800016d0	079da223	sw	x25,100(x27)	 x27:0x8000bc08 x25:0x00000000 PA:0x8000bc6c store:0x00000000 load:0x00000000
         222000	       220	800016d4	07ada423	sw	x26,104(x27)	 x27:0x8000bc08 x26:0x00000000 PA:0x8000bc70 store:0x00000000 load:0x00000000
         224000	       222	800016d8	07bda623	sw	x27,108(x27)	 x27:0x8000bc08 x27:0x8000bc08 PA:0x8000bc74 store:0x8000bc08 load:0x00000000
         226000	       224	800016dc	07cda823	sw	x28,112(x27)	 x27:0x8000bc08 x28:0x00000000 PA:0x8000bc78 store:0x00000000 load:0x00000000
         228000	       226	800016e0	07ddaa23	sw	x29,116(x27)	 x27:0x8000bc08 x29:0x00000000 PA:0x8000bc7c store:0x00000000 load:0x00000000
         230000	       228	800016e4	07edac23	sw	x30,120(x27)	 x27:0x8000bc08 x30:0x00000000 PA:0x8000bc80 store:0x00000000 load:0x00000000
         232000	       230	800016e8	07fdae23	sw	x31,124(x27)	 x27:0x8000bc08 x31:0x800000b8 PA:0x8000bc84 store:0x800000b8 load:0x00000000
         233000	       231	800016ec	34102ff3	csrrs	x31,mepc,x0	  x0:0x00000000 x31=0x800000a0
         234000	       232	800016f0	34202ff3	csrrs	x31,mcause,x0	  x0:0x00000000 x31=0x00000002
         235000	       233	800016f4	492d	c.li	x18,11	 x18=0x0000000b
         236000	       234	800016f6	012f8d63	beq	x31,x18,80001710	 x31:0x00000002 x18:0x0000000b
         237000	       235	800016fa	4909	c.li	x18,2	 x18=0x00000002
         239000	       237	800016fc	0b2f8463	beq	x31,x18,800017a4	 x31:0x00000002 x18:0x00000002
         241000	       239	800017a4	34102ff3	csrrs	x31,mepc,x0	  x0:0x00000000 x31=0x800000a0
         242000	       240	800017a8	0f91	c.addi	x31,4	 x31:0x800000a0 x31=0x800000a4
         243000	       241	800017aa	341f9073	csrrw	x0,mepc,x31	 x31:0x800000a4  x0=0x00000000
         245000	       243	800017ae	004da083	lw	x1,4(x27)	 x27:0x8000bc08  x1=0x00000000 PA:0x8000bc0c load:0x00000000
         247000	       245	800017b2	008da103	lw	x2,8(x27)	 x27:0x8000bc08  x2=0x00000000 PA:0x8000bc10 load:0x00000000
         249000	       247	800017b6	00cda183	lw	x3,12(x27)	 x27:0x8000bc08  x3=0x00000000 PA:0x8000bc14 load:0x00000000
         251000	       249	800017ba	010da203	lw	x4,16(x27)	 x27:0x8000bc08  x4=0x00000000 PA:0x8000bc18 load:0x00000000
         253000	       251	800017be	014da283	lw	x5,20(x27)	 x27:0x8000bc08  x5=0x00000000 PA:0x8000bc1c load:0x00000000
         255000	       253	800017c2	018da303	lw	x6,24(x27)	 x27:0x8000bc08  x6=0x00000000 PA:0x8000bc20 load:0x00000000
         257000	       255	800017c6	01cda383	lw	x7,28(x27)	 x27:0x8000bc08  x7=0x00000000 PA:0x8000bc24 load:0x00000000
         259000	       257	800017ca	020da403	lw	x8,32(x27)	 x27:0x8000bc08  x8=0x00000000 PA:0x8000bc28 load:0x00000000
         261000	       259	800017ce	024da483	lw	x9,36(x27)	 x27:0x8000bc08  x9=0x00000000 PA:0x8000bc2c load:0x00000000
         263000	       261	800017d2	028da503	lw	x10,40(x27)	 x27:0x8000bc08 x10=0x00000000 PA:0x8000bc30 load:0x00000000
         265000	       263	800017d6	02cda583	lw	x11,44(x27)	 x27:0x8000bc08 x11=0x00000000 PA:0x8000bc34 load:0x00000000
         267000	       265	800017da	030da603	lw	x12,48(x27)	 x27:0x8000bc08 x12=0x00000000 PA:0x8000bc38 load:0x00000000
         269000	       267	800017de	034da683	lw	x13,52(x27)	 x27:0x8000bc08 x13=0x00000000 PA:0x8000bc3c load:0x00000000
         271000	       269	800017e2	038da703	lw	x14,56(x27)	 x27:0x8000bc08 x14=0x00000000 PA:0x8000bc40 load:0x00000000
         273000	       271	800017e6	03cda783	lw	x15,60(x27)	 x27:0x8000bc08 x15=0x00000000 PA:0x8000bc44 load:0x00000000
         275000	       273	800017ea	040da803	lw	x16,64(x27)	 x27:0x8000bc08 x16=0x00000000 PA:0x8000bc48 load:0x00000000
         277000	       275	800017ee	044da883	lw	x17,68(x27)	 x27:0x8000bc08 x17=0x00000000 PA:0x8000bc4c load:0x00000000
         279000	       277	800017f2	048da903	lw	x18,72(x27)	 x27:0x8000bc08 x18=0x00000000 PA:0x8000bc50 load:0x00000000
         281000	       279	800017f6	04cda983	lw	x19,76(x27)	 x27:0x8000bc08 x19=0x00000000 PA:0x8000bc54 load:0x00000000
         283000	       281	800017fa	050daa03	lw	x20,80(x27)	 x27:0x8000bc08 x20=0x8000bc84 PA:0x8000bc58 load:0x8000bc84
         285000	       283	800017fe	054daa83	lw	x21,84(x27)	 x27:0x8000bc08 x21=0x00000000 PA:0x8000bc5c load:0x00000000
         287000	       285	80001802	058dab03	lw	x22,88(x27)	 x27:0x8000bc08 x22=0x00000000 PA:0x8000bc60 load:0x00000000
         289000	       287	80001806	05cdab83	lw	x23,92(x27)	 x27:0x8000bc08 x23=0x00000000 PA:0x8000bc64 load:0x00000000
         291000	       289	8000180a	060dac03	lw	x24,96(x27)	 x27:0x8000bc08 x24=0x00000000 PA:0x8000bc68 load:0x00000000
         293000	       291	8000180e	064dac83	lw	x25,100(x27)	 x27:0x8000bc08 x25=0x00000000 PA:0x8000bc6c load:0x00000000
         295000	       293	80001812	068dad03	lw	x26,104(x27)	 x27:0x8000bc08 x26=0x00000000 PA:0x8000bc70 load:0x00000000
         297000	       295	80001816	06cdad83	lw	x27,108(x27)	 x27:0x8000bc08 x27=0x8000bc08 PA:0x8000bc74 load:0x8000bc08
         299000	       297	8000181a	070dae03	lw	x28,112(x27)	 x27:0x8000bc08 x28=0x00000000 PA:0x8000bc78 load:0x00000000
         301000	       299	8000181e	074dae83	lw	x29,116(x27)	 x27:0x8000bc08 x29=0x00000000 PA:0x8000bc7c load:0x00000000
         303000	       301	80001822	078daf03	lw	x30,120(x27)	 x27:0x8000bc08 x30=0x00000000 PA:0x8000bc80 load:0x00000000
         305000	       303	80001826	07cdaf83	lw	x31,124(x27)	 x27:0x8000bc08 x31=0x800000b8 PA:0x8000bc84 load:0x800000b8
         306000	       304	8000182a	07cd8d93	addi	x27,x27,124	 x27:0x8000bc08 x27=0x8000bc84
         307000	       305	8000182e	000d8a33	add	x20,x27,x0	 x27:0x8000bc84  x0:0x00000000 x20=0x8000bc84
         308000	       306	80001832	340d9df3	csrrw	x27,mscratch,x27	 x27:0x8000bc84 x27=0x00000000
         309000	       307	80001836	30200073	mret	
         312000	       310	800000a4	6f89	c.lui	x31,0x2	 x31=0x00002000
         313000	       311	800000a6	c00f8f93	addi	x31,x31,-1024	 x31:0x00002000 x31=0x00001c00
         314000	       312	800000aa	300f9073	csrrw	x0,mstatus,x0	  x0:0x00000000  x0=0x00000000
         318000	       316	80000000	6640106f	jal	x0,80001664	  x0=0x00000000
         319000	       317	80001664	340d9df3	csrrw	x27,mscratch,x27	 x27:0x00000000 x27=0x8000bc84
         320000	       318	80001668	000a0db3	add	x27,x20,x0	 x20:0x8000bc84  x0:0x00000000 x27=0x8000bc84
         321000	       319	8000166c	f84d8d93	addi	x27,x27,-124	 x27:0x8000bc84 x27=0x8000bc08
         323000	       321	80001670	001da223	sw	x1,4(x27)	 x27:0x8000bc08  x1:0x00000000 PA:0x8000bc0c store:0x00000000 load:0x00000000
         325000	       323	80001674	002da423	sw	x2,8(x27)	 x27:0x8000bc08  x2:0x00000000 PA:0x8000bc10 store:0x00000000 load:0x00000000
         327000	       325	80001678	003da623	sw	x3,12(x27)	 x27:0x8000bc08  x3:0x00000000 PA:0x8000bc14 store:0x00000000 load:0x00000000
         329000	       327	8000167c	004da823	sw	x4,16(x27)	 x27:0x8000bc08  x4:0x00000000 PA:0x8000bc18 store:0x00000000 load:0x00000000
         331000	       329	80001680	005daa23	sw	x5,20(x27)	 x27:0x8000bc08  x5:0x00000000 PA:0x8000bc1c store:0x00000000 load:0x00000000
         333000	       331	80001684	006dac23	sw	x6,24(x27)	 x27:0x8000bc08  x6:0x00000000 PA:0x8000bc20 store:0x00000000 load:0x00000000
         335000	       333	80001688	007dae23	sw	x7,28(x27)	 x27:0x8000bc08  x7:0x00000000 PA:0x8000bc24 store:0x00000000 load:0x00000000
         337000	       335	8000168c	028da023	sw	x8,32(x27)	 x27:0x8000bc08  x8:0x00000000 PA:0x8000bc28 store:0x00000000 load:0x00000000
         339000	       337	80001690	029da223	sw	x9,36(x27)	 x27:0x8000bc08  x9:0x00000000 PA:0x8000bc2c store:0x00000000 load:0x00000000
         341000	       339	80001694	02ada423	sw	x10,40(x27)	 x27:0x8000bc08 x10:0x00000000 PA:0x8000bc30 store:0x00000000 load:0x00000000
         343000	       341	80001698	02bda623	sw	x11,44(x27)	 x27:0x8000bc08 x11:0x00000000 PA:0x8000bc34 store:0x00000000 load:0x00000000
         345000	       343	8000169c	02cda823	sw	x12,48(x27)	 x27:0x8000bc08 x12:0x00000000 PA:0x8000bc38 store:0x00000000 load:0x00000000
         347000	       345	800016a0	02ddaa23	sw	x13,52(x27)	 x27:0x8000bc08 x13:0x00000000 PA:0x8000bc3c store:0x00000000 load:0x00000000
         349000	       347	800016a4	02edac23	sw	x14,56(x27)	 x27:0x8000bc08 x14:0x00000000 PA:0x8000bc40 store:0x00000000 load:0x00000000
         351000	       349	800016a8	02fdae23	sw	x15,60(x27)	 x27:0x8000bc08 x15:0x00000000 PA:0x8000bc44 store:0x00000000 load:0x00000000
         353000	       351	800016ac	050da023	sw	x16,64(x27)	 x27:0x8000bc08 x16:0x00000000 PA:0x8000bc48 store:0x00000000 load:0x00000000
         355000	       353	800016b0	051da223	sw	x17,68(x27)	 x27:0x8000bc08 x17:0x00000000 PA:0x8000bc4c store:0x00000000 load:0x00000000
         357000	       355	800016b4	052da423	sw	x18,72(x27)	 x27:0x8000bc08 x18:0x00000000 PA:0x8000bc50 store:0x00000000 load:0x00000000
         359000	       357	800016b8	053da623	sw	x19,76(x27)	 x27:0x8000bc08 x19:0x00000000 PA:0x8000bc54 store:0x00000000 load:0x00000000
         361000	       359	800016bc	054da823	sw	x20,80(x27)	 x27:0x8000bc08 x20:0x8000bc84 PA:0x8000bc58 store:0x8000bc84 load:0x00000000
         363000	       361	800016c0	055daa23	sw	x21,84(x27)	 x27:0x8000bc08 x21:0x00000000 PA:0x8000bc5c store:0x00000000 load:0x00000000
         365000	       363	800016c4	056dac23	sw	x22,88(x27)	 x27:0x8000bc08 x22:0x00000000 PA:0x8000bc60 store:0x00000000 load:0x00000000
         367000	       365	800016c8	057dae23	sw	x23,92(x27)	 x27:0x8000bc08 x23:0x00000000 PA:0x8000bc64 store:0x00000000 load:0x00000000
         369000	       367	800016cc	078da023	sw	x24,96(x27)	 x27:0x8000bc08 x24:0x00000000 PA:0x8000bc68 store:0x00000000 load:0x00000000
         371000	       369	800016d0	079da223	sw	x25,100(x27)	 x27:0x8000bc08 x25:0x00000000 PA:0x8000bc6c store:0x00000000 load:0x00000000
         373000	       371	800016d4	07ada423	sw	x26,104(x27)	 x27:0x8000bc08 x26:0x00000000 PA:0x8000bc70 store:0x00000000 load:0x00000000
         375000	       373	800016d8	07bda623	sw	x27,108(x27)	 x27:0x8000bc08 x27:0x8000bc08 PA:0x8000bc74 store:0x8000bc08 load:0x00000000
         377000	       375	800016dc	07cda823	sw	x28,112(x27)	 x27:0x8000bc08 x28:0x00000000 PA:0x8000bc78 store:0x00000000 load:0x00000000
         379000	       377	800016e0	07ddaa23	sw	x29,116(x27)	 x27:0x8000bc08 x29:0x00000000 PA:0x8000bc7c store:0x00000000 load:0x00000000
         381000	       379	800016e4	07edac23	sw	x30,120(x27)	 x27:0x8000bc08 x30:0x00000000 PA:0x8000bc80 store:0x00000000 load:0x00000000
         383000	       381	800016e8	07fdae23	sw	x31,124(x27)	 x27:0x8000bc08 x31:0x00001c00 PA:0x8000bc84 store:0x00001c00 load:0x00000000
         384000	       382	800016ec	34102ff3	csrrs	x31,mepc,x0	  x0:0x00000000 x31=0x800000aa
         385000	       383	800016f0	34202ff3	csrrs	x31,mcause,x0	  x0:0x00000000 x31=0x00000002
         386000	       384	800016f4	492d	c.li	x18,11	 x18=0x0000000b
         387000	       385	800016f6	012f8d63	beq	x31,x18,80001710	 x31:0x00000002 x18:0x0000000b
         388000	       386	800016fa	4909	c.li	x18,2	 x18=0x00000002
         390000	       388	800016fc	0b2f8463	beq	x31,x18,800017a4	 x31:0x00000002 x18:0x00000002
         392000	       390	800017a4	34102ff3	csrrs	x31,mepc,x0	  x0:0x00000000 x31=0x800000aa
         393000	       391	800017a8	0f91	c.addi	x31,4	 x31:0x800000aa x31=0x800000ae
         394000	       392	800017aa	341f9073	csrrw	x0,mepc,x31	 x31:0x800000ae  x0=0x00000000
         396000	       394	800017ae	004da083	lw	x1,4(x27)	 x27:0x8000bc08  x1=0x00000000 PA:0x8000bc0c load:0x00000000
         398000	       396	800017b2	008da103	lw	x2,8(x27)	 x27:0x8000bc08  x2=0x00000000 PA:0x8000bc10 load:0x00000000
         400000	       398	800017b6	00cda183	lw	x3,12(x27)	 x27:0x8000bc08  x3=0x00000000 PA:0x8000bc14 load:0x00000000
         402000	       400	800017ba	010da203	lw	x4,16(x27)	 x27:0x8000bc08  x4=0x00000000 PA:0x8000bc18 load:0x00000000
         404000	       402	800017be	014da283	lw	x5,20(x27)	 x27:0x8000bc08  x5=0x00000000 PA:0x8000bc1c load:0x00000000
         406000	       404	800017c2	018da303	lw	x6,24(x27)	 x27:0x8000bc08  x6=0x00000000 PA:0x8000bc20 load:0x00000000
         408000	       406	800017c6	01cda383	lw	x7,28(x27)	 x27:0x8000bc08  x7=0x00000000 PA:0x8000bc24 load:0x00000000
         410000	       408	800017ca	020da403	lw	x8,32(x27)	 x27:0x8000bc08  x8=0x00000000 PA:0x8000bc28 load:0x00000000
         412000	       410	800017ce	024da483	lw	x9,36(x27)	 x27:0x8000bc08  x9=0x00000000 PA:0x8000bc2c load:0x00000000
         414000	       412	800017d2	028da503	lw	x10,40(x27)	 x27:0x8000bc08 x10=0x00000000 PA:0x8000bc30 load:0x00000000
         416000	       414	800017d6	02cda583	lw	x11,44(x27)	 x27:0x8000bc08 x11=0x00000000 PA:0x8000bc34 load:0x00000000
         418000	       416	800017da	030da603	lw	x12,48(x27)	 x27:0x8000bc08 x12=0x00000000 PA:0x8000bc38 load:0x00000000
         420000	       418	800017de	034da683	lw	x13,52(x27)	 x27:0x8000bc08 x13=0x00000000 PA:0x8000bc3c load:0x00000000
         422000	       420	800017e2	038da703	lw	x14,56(x27)	 x27:0x8000bc08 x14=0x00000000 PA:0x8000bc40 load:0x00000000
         424000	       422	800017e6	03cda783	lw	x15,60(x27)	 x27:0x8000bc08 x15=0x00000000 PA:0x8000bc44 load:0x00000000
         426000	       424	800017ea	040da803	lw	x16,64(x27)	 x27:0x8000bc08 x16=0x00000000 PA:0x8000bc48 load:0x00000000
         428000	       426	800017ee	044da883	lw	x17,68(x27)	 x27:0x8000bc08 x17=0x00000000 PA:0x8000bc4c load:0x00000000
         430000	       428	800017f2	048da903	lw	x18,72(x27)	 x27:0x8000bc08 x18=0x00000000 PA:0x8000bc50 load:0x00000000
         432000	       430	800017f6	04cda983	lw	x19,76(x27)	 x27:0x8000bc08 x19=0x00000000 PA:0x8000bc54 load:0x00000000
         434000	       432	800017fa	050daa03	lw	x20,80(x27)	 x27:0x8000bc08 x20=0x8000bc84 PA:0x8000bc58 load:0x8000bc84
         436000	       434	800017fe	054daa83	lw	x21,84(x27)	 x27:0x8000bc08 x21=0x00000000 PA:0x8000bc5c load:0x00000000
         438000	       436	80001802	058dab03	lw	x22,88(x27)	 x27:0x8000bc08 x22=0x00000000 PA:0x8000bc60 load:0x00000000
         440000	       438	80001806	05cdab83	lw	x23,92(x27)	 x27:0x8000bc08 x23=0x00000000 PA:0x8000bc64 load:0x00000000
         442000	       440	8000180a	060dac03	lw	x24,96(x27)	 x27:0x8000bc08 x24=0x00000000 PA:0x8000bc68 load:0x00000000
         444000	       442	8000180e	064dac83	lw	x25,100(x27)	 x27:0x8000bc08 x25=0x00000000 PA:0x8000bc6c load:0x00000000
         446000	       444	80001812	068dad03	lw	x26,104(x27)	 x27:0x8000bc08 x26=0x00000000 PA:0x8000bc70 load:0x00000000
         448000	       446	80001816	06cdad83	lw	x27,108(x27)	 x27:0x8000bc08 x27=0x8000bc08 PA:0x8000bc74 load:0x8000bc08
         450000	       448	8000181a	070dae03	lw	x28,112(x27)	 x27:0x8000bc08 x28=0x00000000 PA:0x8000bc78 load:0x00000000
         452000	       450	8000181e	074dae83	lw	x29,116(x27)	 x27:0x8000bc08 x29=0x00000000 PA:0x8000bc7c load:0x00000000
         454000	       452	80001822	078daf03	lw	x30,120(x27)	 x27:0x8000bc08 x30=0x00000000 PA:0x8000bc80 load:0x00000000
         456000	       454	80001826	07cdaf83	lw	x31,124(x27)	 x27:0x8000bc08 x31=0x00001c00 PA:0x8000bc84 load:0x00001c00
         457000	       455	8000182a	07cd8d93	addi	x27,x27,124	 x27:0x8000bc08 x27=0x8000bc84
         458000	       456	8000182e	000d8a33	add	x20,x27,x0	 x27:0x8000bc84  x0:0x00000000 x20=0x8000bc84
         459000	       457	80001832	340d9df3	csrrw	x27,mscratch,x27	 x27:0x8000bc84 x27=0x00000000
         460000	       458	80001836	30200073	mret	
         463000	       461	800000ae	4f81	c.li	x31,0	 x31=0x00000000
         464000	       462	800000b0	304f9073	csrrw	x0,mie,x0	  x0:0x00000000  x0=0x00000000
         468000	       466	80000000	6640106f	jal	x0,80001664	  x0=0x00000000
         469000	       467	80001664	340d9df3	csrrw	x27,mscratch,x27	 x27:0x00000000 x27=0x8000bc84
         470000	       468	80001668	000a0db3	add	x27,x20,x0	 x20:0x8000bc84  x0:0x00000000 x27=0x8000bc84
         471000	       469	8000166c	f84d8d93	addi	x27,x27,-124	 x27:0x8000bc84 x27=0x8000bc08
         473000	       471	80001670	001da223	sw	x1,4(x27)	 x27:0x8000bc08  x1:0x00000000 PA:0x8000bc0c store:0x00000000 load:0x00000000
         475000	       473	80001674	002da423	sw	x2,8(x27)	 x27:0x8000bc08  x2:0x00000000 PA:0x8000bc10 store:0x00000000 load:0x00000000
         477000	       475	80001678	003da623	sw	x3,12(x27)	 x27:0x8000bc08  x3:0x00000000 PA:0x8000bc14 store:0x00000000 load:0x00000000
         479000	       477	8000167c	004da823	sw	x4,16(x27)	 x27:0x8000bc08  x4:0x00000000 PA:0x8000bc18 store:0x00000000 load:0x00000000
         481000	       479	80001680	005daa23	sw	x5,20(x27)	 x27:0x8000bc08  x5:0x00000000 PA:0x8000bc1c store:0x00000000 load:0x00000000
         483000	       481	80001684	006dac23	sw	x6,24(x27)	 x27:0x8000bc08  x6:0x00000000 PA:0x8000bc20 store:0x00000000 load:0x00000000
         485000	       483	80001688	007dae23	sw	x7,28(x27)	 x27:0x8000bc08  x7:0x00000000 PA:0x8000bc24 store:0x00000000 load:0x00000000
         487000	       485	8000168c	028da023	sw	x8,32(x27)	 x27:0x8000bc08  x8:0x00000000 PA:0x8000bc28 store:0x00000000 load:0x00000000
         489000	       487	80001690	029da223	sw	x9,36(x27)	 x27:0x8000bc08  x9:0x00000000 PA:0x8000bc2c store:0x00000000 load:0x00000000
         491000	       489	80001694	02ada423	sw	x10,40(x27)	 x27:0x8000bc08 x10:0x00000000 PA:0x8000bc30 store:0x00000000 load:0x00000000
         493000	       491	80001698	02bda623	sw	x11,44(x27)	 x27:0x8000bc08 x11:0x00000000 PA:0x8000bc34 store:0x00000000 load:0x00000000
         495000	       493	8000169c	02cda823	sw	x12,48(x27)	 x27:0x8000bc08 x12:0x00000000 PA:0x8000bc38 store:0x00000000 load:0x00000000
         497000	       495	800016a0	02ddaa23	sw	x13,52(x27)	 x27:0x8000bc08 x13:0x00000000 PA:0x8000bc3c store:0x00000000 load:0x00000000
         499000	       497	800016a4	02edac23	sw	x14,56(x27)	 x27:0x8000bc08 x14:0x00000000 PA:0x8000bc40 store:0x00000000 load:0x00000000
         501000	       499	800016a8	02fdae23	sw	x15,60(x27)	 x27:0x8000bc08 x15:0x00000000 PA:0x8000bc44 store:0x00000000 load:0x00000000
         503000	       501	800016ac	050da023	sw	x16,64(x27)	 x27:0x8000bc08 x16:0x00000000 PA:0x8000bc48 store:0x00000000 load:0x00000000
         505000	       503	800016b0	051da223	sw	x17,68(x27)	 x27:0x8000bc08 x17:0x00000000 PA:0x8000bc4c store:0x00000000 load:0x00000000
         507000	       505	800016b4	052da423	sw	x18,72(x27)	 x27:0x8000bc08 x18:0x00000000 PA:0x8000bc50 store:0x00000000 load:0x00000000
         509000	       507	800016b8	053da623	sw	x19,76(x27)	 x27:0x8000bc08 x19:0x00000000 PA:0x8000bc54 store:0x00000000 load:0x00000000
         511000	       509	800016bc	054da823	sw	x20,80(x27)	 x27:0x8000bc08 x20:0x8000bc84 PA:0x8000bc58 store:0x8000bc84 load:0x00000000
         513000	       511	800016c0	055daa23	sw	x21,84(x27)	 x27:0x8000bc08 x21:0x00000000 PA:0x8000bc5c store:0x00000000 load:0x00000000
         515000	       513	800016c4	056dac23	sw	x22,88(x27)	 x27:0x8000bc08 x22:0x00000000 PA:0x8000bc60 store:0x00000000 load:0x00000000
         517000	       515	800016c8	057dae23	sw	x23,92(x27)	 x27:0x8000bc08 x23:0x00000000 PA:0x8000bc64 store:0x00000000 load:0x00000000
         519000	       517	800016cc	078da023	sw	x24,96(x27)	 x27:0x8000bc08 x24:0x00000000 PA:0x8000bc68 store:0x00000000 load:0x00000000
         521000	       519	800016d0	079da223	sw	x25,100(x27)	 x27:0x8000bc08 x25:0x00000000 PA:0x8000bc6c store:0x00000000 load:0x00000000
         523000	       521	800016d4	07ada423	sw	x26,104(x27)	 x27:0x8000bc08 x26:0x00000000 PA:0x8000bc70 store:0x00000000 load:0x00000000
         525000	       523	800016d8	07bda623	sw	x27,108(x27)	 x27:0x8000bc08 x27:0x8000bc08 PA:0x8000bc74 store:0x8000bc08 load:0x00000000
         527000	       525	800016dc	07cda823	sw	x28,112(x27)	 x27:0x8000bc08 x28:0x00000000 PA:0x8000bc78 store:0x00000000 load:0x00000000
         529000	       527	800016e0	07ddaa23	sw	x29,116(x27)	 x27:0x8000bc08 x29:0x00000000 PA:0x8000bc7c store:0x00000000 load:0x00000000
         531000	       529	800016e4	07edac23	sw	x30,120(x27)	 x27:0x8000bc08 x30:0x00000000 PA:0x8000bc80 store:0x00000000 load:0x00000000
         533000	       531	800016e8	07fdae23	sw	x31,124(x27)	 x27:0x8000bc08 x31:0x00000000 PA:0x8000bc84 store:0x00000000 load:0x00000000
         534000	       532	800016ec	34102ff3	csrrs	x31,mepc,x0	  x0:0x00000000 x31=0x800000b0
         535000	       533	800016f0	34202ff3	csrrs	x31,mcause,x0	  x0:0x00000000 x31=0x00000002
         536000	       534	800016f4	492d	c.li	x18,11	 x18=0x0000000b
         537000	       535	800016f6	012f8d63	beq	x31,x18,80001710	 x31:0x00000002 x18:0x0000000b
         538000	       536	800016fa	4909	c.li	x18,2	 x18=0x00000002
         540000	       538	800016fc	0b2f8463	beq	x31,x18,800017a4	 x31:0x00000002 x18:0x00000002
         542000	       540	800017a4	34102ff3	csrrs	x31,mepc,x0	  x0:0x00000000 x31=0x800000b0
         543000	       541	800017a8	0f91	c.addi	x31,4	 x31:0x800000b0 x31=0x800000b4
         544000	       542	800017aa	341f9073	csrrw	x0,mepc,x31	 x31:0x800000b4  x0=0x00000000
         546000	       544	800017ae	004da083	lw	x1,4(x27)	 x27:0x8000bc08  x1=0x00000000 PA:0x8000bc0c load:0x00000000
         548000	       546	800017b2	008da103	lw	x2,8(x27)	 x27:0x8000bc08  x2=0x00000000 PA:0x8000bc10 load:0x00000000
         550000	       548	800017b6	00cda183	lw	x3,12(x27)	 x27:0x8000bc08  x3=0x00000000 PA:0x8000bc14 load:0x00000000
         552000	       550	800017ba	010da203	lw	x4,16(x27)	 x27:0x8000bc08  x4=0x00000000 PA:0x8000bc18 load:0x00000000
         554000	       552	800017be	014da283	lw	x5,20(x27)	 x27:0x8000bc08  x5=0x00000000 PA:0x8000bc1c load:0x00000000
         556000	       554	800017c2	018da303	lw	x6,24(x27)	 x27:0x8000bc08  x6=0x00000000 PA:0x8000bc20 load:0x00000000
         558000	       556	800017c6	01cda383	lw	x7,28(x27)	 x27:0x8000bc08  x7=0x00000000 PA:0x8000bc24 load:0x00000000
         560000	       558	800017ca	020da403	lw	x8,32(x27)	 x27:0x8000bc08  x8=0x00000000 PA:0x8000bc28 load:0x00000000
         562000	       560	800017ce	024da483	lw	x9,36(x27)	 x27:0x8000bc08  x9=0x00000000 PA:0x8000bc2c load:0x00000000
         564000	       562	800017d2	028da503	lw	x10,40(x27)	 x27:0x8000bc08 x10=0x00000000 PA:0x8000bc30 load:0x00000000
         566000	       564	800017d6	02cda583	lw	x11,44(x27)	 x27:0x8000bc08 x11=0x00000000 PA:0x8000bc34 load:0x00000000
         568000	       566	800017da	030da603	lw	x12,48(x27)	 x27:0x8000bc08 x12=0x00000000 PA:0x8000bc38 load:0x00000000
         570000	       568	800017de	034da683	lw	x13,52(x27)	 x27:0x8000bc08 x13=0x00000000 PA:0x8000bc3c load:0x00000000
         572000	       570	800017e2	038da703	lw	x14,56(x27)	 x27:0x8000bc08 x14=0x00000000 PA:0x8000bc40 load:0x00000000
         574000	       572	800017e6	03cda783	lw	x15,60(x27)	 x27:0x8000bc08 x15=0x00000000 PA:0x8000bc44 load:0x00000000
         576000	       574	800017ea	040da803	lw	x16,64(x27)	 x27:0x8000bc08 x16=0x00000000 PA:0x8000bc48 load:0x00000000
         578000	       576	800017ee	044da883	lw	x17,68(x27)	 x27:0x8000bc08 x17=0x00000000 PA:0x8000bc4c load:0x00000000
         580000	       578	800017f2	048da903	lw	x18,72(x27)	 x27:0x8000bc08 x18=0x00000000 PA:0x8000bc50 load:0x00000000
         582000	       580	800017f6	04cda983	lw	x19,76(x27)	 x27:0x8000bc08 x19=0x00000000 PA:0x8000bc54 load:0x00000000
         584000	       582	800017fa	050daa03	lw	x20,80(x27)	 x27:0x8000bc08 x20=0x8000bc84 PA:0x8000bc58 load:0x8000bc84
         586000	       584	800017fe	054daa83	lw	x21,84(x27)	 x27:0x8000bc08 x21=0x00000000 PA:0x8000bc5c load:0x00000000
         588000	       586	80001802	058dab03	lw	x22,88(x27)	 x27:0x8000bc08 x22=0x00000000 PA:0x8000bc60 load:0x00000000
         590000	       588	80001806	05cdab83	lw	x23,92(x27)	 x27:0x8000bc08 x23=0x00000000 PA:0x8000bc64 load:0x00000000
         592000	       590	8000180a	060dac03	lw	x24,96(x27)	 x27:0x8000bc08 x24=0x00000000 PA:0x8000bc68 load:0x00000000
         594000	       592	8000180e	064dac83	lw	x25,100(x27)	 x27:0x8000bc08 x25=0x00000000 PA:0x8000bc6c load:0x00000000
         596000	       594	80001812	068dad03	lw	x26,104(x27)	 x27:0x8000bc08 x26=0x00000000 PA:0x8000bc70 load:0x00000000
         598000	       596	80001816	06cdad83	lw	x27,108(x27)	 x27:0x8000bc08 x27=0x8000bc08 PA:0x8000bc74 load:0x8000bc08
         600000	       598	8000181a	070dae03	lw	x28,112(x27)	 x27:0x8000bc08 x28=0x00000000 PA:0x8000bc78 load:0x00000000
         602000	       600	8000181e	074dae83	lw	x29,116(x27)	 x27:0x8000bc08 x29=0x00000000 PA:0x8000bc7c load:0x00000000
         604000	       602	80001822	078daf03	lw	x30,120(x27)	 x27:0x8000bc08 x30=0x00000000 PA:0x8000bc80 load:0x00000000
         606000	       604	80001826	07cdaf83	lw	x31,124(x27)	 x27:0x8000bc08 x31=0x00000000 PA:0x8000bc84 load:0x00000000
         607000	       605	8000182a	07cd8d93	addi	x27,x27,124	 x27:0x8000bc08 x27=0x8000bc84
         608000	       606	8000182e	000d8a33	add	x20,x27,x0	 x27:0x8000bc84  x0:0x00000000 x20=0x8000bc84
         609000	       607	80001832	340d9df3	csrrw	x27,mscratch,x27	 x27:0x8000bc84 x27=0x00000000
         610000	       608	80001836	30200073	mret	
         613000	       611	800000b4	30200073	mret	
         617000	       615	80000000	6640106f	jal	x0,80001664	  x0=0x00000000
         618000	       616	80001664	340d9df3	csrrw	x27,mscratch,x27	 x27:0x00000000 x27=0x8000bc84
         619000	       617	80001668	000a0db3	add	x27,x20,x0	 x20:0x8000bc84  x0:0x00000000 x27=0x8000bc84
         620000	       618	8000166c	f84d8d93	addi	x27,x27,-124	 x27:0x8000bc84 x27=0x8000bc08
         622000	       620	80001670	001da223	sw	x1,4(x27)	 x27:0x8000bc08  x1:0x00000000 PA:0x8000bc0c store:0x00000000 load:0x00000000
         624000	       622	80001674	002da423	sw	x2,8(x27)	 x27:0x8000bc08  x2:0x00000000 PA:0x8000bc10 store:0x00000000 load:0x00000000
         626000	       624	80001678	003da623	sw	x3,12(x27)	 x27:0x8000bc08  x3:0x00000000 PA:0x8000bc14 store:0x00000000 load:0x00000000
         628000	       626	8000167c	004da823	sw	x4,16(x27)	 x27:0x8000bc08  x4:0x00000000 PA:0x8000bc18 store:0x00000000 load:0x00000000
         630000	       628	80001680	005daa23	sw	x5,20(x27)	 x27:0x8000bc08  x5:0x00000000 PA:0x8000bc1c store:0x00000000 load:0x00000000
         632000	       630	80001684	006dac23	sw	x6,24(x27)	 x27:0x8000bc08  x6:0x00000000 PA:0x8000bc20 store:0x00000000 load:0x00000000
         634000	       632	80001688	007dae23	sw	x7,28(x27)	 x27:0x8000bc08  x7:0x00000000 PA:0x8000bc24 store:0x00000000 load:0x00000000
         636000	       634	8000168c	028da023	sw	x8,32(x27)	 x27:0x8000bc08  x8:0x00000000 PA:0x8000bc28 store:0x00000000 load:0x00000000
         638000	       636	80001690	029da223	sw	x9,36(x27)	 x27:0x8000bc08  x9:0x00000000 PA:0x8000bc2c store:0x00000000 load:0x00000000
         640000	       638	80001694	02ada423	sw	x10,40(x27)	 x27:0x8000bc08 x10:0x00000000 PA:0x8000bc30 store:0x00000000 load:0x00000000
         642000	       640	80001698	02bda623	sw	x11,44(x27)	 x27:0x8000bc08 x11:0x00000000 PA:0x8000bc34 store:0x00000000 load:0x00000000
         644000	       642	8000169c	02cda823	sw	x12,48(x27)	 x27:0x8000bc08 x12:0x00000000 PA:0x8000bc38 store:0x00000000 load:0x00000000
         646000	       644	800016a0	02ddaa23	sw	x13,52(x27)	 x27:0x8000bc08 x13:0x00000000 PA:0x8000bc3c store:0x00000000 load:0x00000000
         648000	       646	800016a4	02edac23	sw	x14,56(x27)	 x27:0x8000bc08 x14:0x00000000 PA:0x8000bc40 store:0x00000000 load:0x00000000
         650000	       648	800016a8	02fdae23	sw	x15,60(x27)	 x27:0x8000bc08 x15:0x00000000 PA:0x8000bc44 store:0x00000000 load:0x00000000
         652000	       650	800016ac	050da023	sw	x16,64(x27)	 x27:0x8000bc08 x16:0x00000000 PA:0x8000bc48 store:0x00000000 load:0x00000000
         654000	       652	800016b0	051da223	sw	x17,68(x27)	 x27:0x8000bc08 x17:0x00000000 PA:0x8000bc4c store:0x00000000 load:0x00000000
         656000	       654	800016b4	052da423	sw	x18,72(x27)	 x27:0x8000bc08 x18:0x00000000 PA:0x8000bc50 store:0x00000000 load:0x00000000
         658000	       656	800016b8	053da623	sw	x19,76(x27)	 x27:0x8000bc08 x19:0x00000000 PA:0x8000bc54 store:0x00000000 load:0x00000000
         660000	       658	800016bc	054da823	sw	x20,80(x27)	 x27:0x8000bc08 x20:0x8000bc84 PA:0x8000bc58 store:0x8000bc84 load:0x00000000
         662000	       660	800016c0	055daa23	sw	x21,84(x27)	 x27:0x8000bc08 x21:0x00000000 PA:0x8000bc5c store:0x00000000 load:0x00000000
         664000	       662	800016c4	056dac23	sw	x22,88(x27)	 x27:0x8000bc08 x22:0x00000000 PA:0x8000bc60 store:0x00000000 load:0x00000000
         666000	       664	800016c8	057dae23	sw	x23,92(x27)	 x27:0x8000bc08 x23:0x00000000 PA:0x8000bc64 store:0x00000000 load:0x00000000
         668000	       666	800016cc	078da023	sw	x24,96(x27)	 x27:0x8000bc08 x24:0x00000000 PA:0x8000bc68 store:0x00000000 load:0x00000000
         670000	       668	800016d0	079da223	sw	x25,100(x27)	 x27:0x8000bc08 x25:0x00000000 PA:0x8000bc6c store:0x00000000 load:0x00000000
         672000	       670	800016d4	07ada423	sw	x26,104(x27)	 x27:0x8000bc08 x26:0x00000000 PA:0x8000bc70 store:0x00000000 load:0x00000000
         674000	       672	800016d8	07bda623	sw	x27,108(x27)	 x27:0x8000bc08 x27:0x8000bc08 PA:0x8000bc74 store:0x8000bc08 load:0x00000000
         676000	       674	800016dc	07cda823	sw	x28,112(x27)	 x27:0x8000bc08 x28:0x00000000 PA:0x8000bc78 store:0x00000000 load:0x00000000
         678000	       676	800016e0	07ddaa23	sw	x29,116(x27)	 x27:0x8000bc08 x29:0x00000000 PA:0x8000bc7c store:0x00000000 load:0x00000000
         680000	       678	800016e4	07edac23	sw	x30,120(x27)	 x27:0x8000bc08 x30:0x00000000 PA:0x8000bc80 store:0x00000000 load:0x00000000
         682000	       680	800016e8	07fdae23	sw	x31,124(x27)	 x27:0x8000bc08 x31:0x00000000 PA:0x8000bc84 store:0x00000000 load:0x00000000
         683000	       681	800016ec	34102ff3	csrrs	x31,mepc,x0	  x0:0x00000000 x31=0x800000b4
         684000	       682	800016f0	34202ff3	csrrs	x31,mcause,x0	  x0:0x00000000 x31=0x00000002
         685000	       683	800016f4	492d	c.li	x18,11	 x18=0x0000000b
         686000	       684	800016f6	012f8d63	beq	x31,x18,80001710	 x31:0x00000002 x18:0x0000000b
         687000	       685	800016fa	4909	c.li	x18,2	 x18=0x00000002
         689000	       687	800016fc	0b2f8463	beq	x31,x18,800017a4	 x31:0x00000002 x18:0x00000002
         691000	       689	800017a4	34102ff3	csrrs	x31,mepc,x0	  x0:0x00000000 x31=0x800000b4
         692000	       690	800017a8	0f91	c.addi	x31,4	 x31:0x800000b4 x31=0x800000b8
         693000	       691	800017aa	341f9073	csrrw	x0,mepc,x31	 x31:0x800000b8  x0=0x00000000
         695000	       693	800017ae	004da083	lw	x1,4(x27)	 x27:0x8000bc08  x1=0x00000000 PA:0x8000bc0c load:0x00000000
         697000	       695	800017b2	008da103	lw	x2,8(x27)	 x27:0x8000bc08  x2=0x00000000 PA:0x8000bc10 load:0x00000000
         699000	       697	800017b6	00cda183	lw	x3,12(x27)	 x27:0x8000bc08  x3=0x00000000 PA:0x8000bc14 load:0x00000000
         701000	       699	800017ba	010da203	lw	x4,16(x27)	 x27:0x8000bc08  x4=0x00000000 PA:0x8000bc18 load:0x00000000
         703000	       701	800017be	014da283	lw	x5,20(x27)	 x27:0x8000bc08  x5=0x00000000 PA:0x8000bc1c load:0x00000000
         705000	       703	800017c2	018da303	lw	x6,24(x27)	 x27:0x8000bc08  x6=0x00000000 PA:0x8000bc20 load:0x00000000
         707000	       705	800017c6	01cda383	lw	x7,28(x27)	 x27:0x8000bc08  x7=0x00000000 PA:0x8000bc24 load:0x00000000
         709000	       707	800017ca	020da403	lw	x8,32(x27)	 x27:0x8000bc08  x8=0x00000000 PA:0x8000bc28 load:0x00000000
         711000	       709	800017ce	024da483	lw	x9,36(x27)	 x27:0x8000bc08  x9=0x00000000 PA:0x8000bc2c load:0x00000000
         713000	       711	800017d2	028da503	lw	x10,40(x27)	 x27:0x8000bc08 x10=0x00000000 PA:0x8000bc30 load:0x00000000
         715000	       713	800017d6	02cda583	lw	x11,44(x27)	 x27:0x8000bc08 x11=0x00000000 PA:0x8000bc34 load:0x00000000
         717000	       715	800017da	030da603	lw	x12,48(x27)	 x27:0x8000bc08 x12=0x00000000 PA:0x8000bc38 load:0x00000000
         719000	       717	800017de	034da683	lw	x13,52(x27)	 x27:0x8000bc08 x13=0x00000000 PA:0x8000bc3c load:0x00000000
         721000	       719	800017e2	038da703	lw	x14,56(x27)	 x27:0x8000bc08 x14=0x00000000 PA:0x8000bc40 load:0x00000000
         723000	       721	800017e6	03cda783	lw	x15,60(x27)	 x27:0x8000bc08 x15=0x00000000 PA:0x8000bc44 load:0x00000000
         725000	       723	800017ea	040da803	lw	x16,64(x27)	 x27:0x8000bc08 x16=0x00000000 PA:0x8000bc48 load:0x00000000
         727000	       725	800017ee	044da883	lw	x17,68(x27)	 x27:0x8000bc08 x17=0x00000000 PA:0x8000bc4c load:0x00000000
         729000	       727	800017f2	048da903	lw	x18,72(x27)	 x27:0x8000bc08 x18=0x00000000 PA:0x8000bc50 load:0x00000000
         731000	       729	800017f6	04cda983	lw	x19,76(x27)	 x27:0x8000bc08 x19=0x00000000 PA:0x8000bc54 load:0x00000000
         733000	       731	800017fa	050daa03	lw	x20,80(x27)	 x27:0x8000bc08 x20=0x8000bc84 PA:0x8000bc58 load:0x8000bc84
         735000	       733	800017fe	054daa83	lw	x21,84(x27)	 x27:0x8000bc08 x21=0x00000000 PA:0x8000bc5c load:0x00000000
         737000	       735	80001802	058dab03	lw	x22,88(x27)	 x27:0x8000bc08 x22=0x00000000 PA:0x8000bc60 load:0x00000000
         739000	       737	80001806	05cdab83	lw	x23,92(x27)	 x27:0x8000bc08 x23=0x00000000 PA:0x8000bc64 load:0x00000000
         741000	       739	8000180a	060dac03	lw	x24,96(x27)	 x27:0x8000bc08 x24=0x00000000 PA:0x8000bc68 load:0x00000000
         743000	       741	8000180e	064dac83	lw	x25,100(x27)	 x27:0x8000bc08 x25=0x00000000 PA:0x8000bc6c load:0x00000000
         745000	       743	80001812	068dad03	lw	x26,104(x27)	 x27:0x8000bc08 x26=0x00000000 PA:0x8000bc70 load:0x00000000
         747000	       745	80001816	06cdad83	lw	x27,108(x27)	 x27:0x8000bc08 x27=0x8000bc08 PA:0x8000bc74 load:0x8000bc08
         749000	       747	8000181a	070dae03	lw	x28,112(x27)	 x27:0x8000bc08 x28=0x00000000 PA:0x8000bc78 load:0x00000000
         751000	       749	8000181e	074dae83	lw	x29,116(x27)	 x27:0x8000bc08 x29=0x00000000 PA:0x8000bc7c load:0x00000000
         753000	       751	80001822	078daf03	lw	x30,120(x27)	 x27:0x8000bc08 x30=0x00000000 PA:0x8000bc80 load:0x00000000
         755000	       753	80001826	07cdaf83	lw	x31,124(x27)	 x27:0x8000bc08 x31=0x00000000 PA:0x8000bc84 load:0x00000000
         756000	       754	8000182a	07cd8d93	addi	x27,x27,124	 x27:0x8000bc08 x27=0x8000bc84
         757000	       755	8000182e	000d8a33	add	x20,x27,x0	 x27:0x8000bc84  x0:0x00000000 x20=0x8000bc84
         758000	       756	80001832	340d9df3	csrrw	x27,mscratch,x27	 x27:0x8000bc84 x27=0x00000000
         759000	       757	80001836	30200073	mret	
         762000	       760	800000b8	00d00013	addi	x0,x0,13	  x0:0x00000000  x0=0x00000000
         763000	       761	800000bc	800000b7	lui	x1,0x80000	  x1=0x80000000
         764000	       762	800000c0	4101	c.li	x2,0	  x2=0x00000000
         765000	       763	800000c2	800001b7	lui	x3,0x80000	  x3=0x80000000
         766000	       764	800000c6	4c88f237	lui	x4,0x4c88f	  x4=0x4c88f000
         767000	       765	800000ca	fa320213	addi	x4,x4,-93	  x4:0x4c88f000  x4=0x4c88efa3
         768000	       766	800000ce	f37042b7	lui	x5,0xf3704	  x5=0xf3704000
         769000	       767	800000d2	d4528293	addi	x5,x5,-699	  x5:0xf3704000  x5=0xf3703d45
         770000	       768	800000d6	19c9a337	lui	x6,0x19c9a	  x6=0x19c9a000
         771000	       769	800000da	a3e30313	addi	x6,x6,-1474	  x6:0x19c9a000  x6=0x19c99a3e
         772000	       770	800000de	4381	c.li	x7,0	  x7=0x00000000
         773000	       771	800000e0	443d	c.li	x8,15	  x8=0x0000000f
         774000	       772	800000e2	4481	c.li	x9,0	  x9=0x00000000
         775000	       773	800000e4	4501	c.li	x10,0	 x10=0x00000000
         776000	       774	800000e6	4595	c.li	x11,5	 x11=0x00000005
         777000	       775	800000e8	80000637	lui	x12,0x80000	 x12=0x80000000
         778000	       776	800000ec	a796f6b7	lui	x13,0xa796f	 x13=0xa796f000
         779000	       777	800000f0	16fd	c.addi	x13,-1	 x13:0xa796f000 x13=0xa796efff
         780000	       778	800000f2	4701	c.li	x14,0	 x14=0x00000000
         781000	       779	800000f4	fb70d7b7	lui	x15,0xfb70d	 x15=0xfb70d000
         782000	       780	800000f8	7f478793	addi	x15,x15,2036	 x15:0xfb70d000 x15=0xfb70d7f4
         783000	       781	800000fc	5c56a837	lui	x16,0x5c56a	 x16=0x5c56a000
         784000	       782	80000100	46080813	addi	x16,x16,1120	 x16:0x5c56a000 x16=0x5c56a460
         785000	       783	80000104	f6a0e8b7	lui	x17,0xf6a0e	 x17=0xf6a0e000
         786000	       784	80000108	1fa88893	addi	x17,x17,506	 x17:0xf6a0e000 x17=0xf6a0e1fa
         787000	       785	8000010c	df05a937	lui	x18,0xdf05a	 x18=0xdf05a000
         788000	       786	80000110	67f90913	addi	x18,x18,1663	 x18:0xdf05a000 x18=0xdf05a67f
         789000	       787	80000114	800009b7	lui	x19,0x80000	 x19=0x80000000
         790000	       788	80000118	f7856ab7	lui	x21,0xf7856	 x21=0xf7856000
         791000	       789	8000011c	180a8a93	addi	x21,x21,384	 x21:0xf7856000 x21=0xf7856180
         792000	       790	80000120	3c737b37	lui	x22,0x3c737	 x22=0x3c737000
         793000	       791	80000124	fceb0b13	addi	x22,x22,-50	 x22:0x3c737000 x22=0x3c736fce
         794000	       792	80000128	80000bb7	lui	x23,0x80000	 x23=0x80000000
         795000	       793	8000012c	7b06dc37	lui	x24,0x7b06d	 x24=0x7b06d000
         796000	       794	80000130	057c0c13	addi	x24,x24,87	 x24:0x7b06d000 x24=0x7b06d057
         797000	       795	80000134	4c81	c.li	x25,0	 x25=0x00000000
         798000	       796	80000136	80000d37	lui	x26,0x80000	 x26=0x80000000
         799000	       797	8000013a	4e01	c.li	x28,0	 x28=0x00000000
         800000	       798	8000013c	4e91	c.li	x29,4	 x29=0x00000004
         801000	       799	8000013e	a55acf37	lui	x30,0xa55ac	 x30=0xa55ac000
         802000	       800	80000142	b79f0f13	addi	x30,x30,-1159	 x30:0xa55ac000 x30=0xa55abb79
         803000	       801	80000146	4f85	c.li	x31,1	 x31=0x00000001
         804000	       802	80000148	00007d97	auipc	x27,0x7	 x27=0x80007148
         805000	       803	8000014c	d1cd8d93	addi	x27,x27,-740	 x27:0x80007148 x27=0x80006e64
         806000	       804	80000150	01d88bb3	add	x23,x17,x29	 x17:0xf6a0e1fa x29:0x00000004 x23=0xf6a0e1fe
         807000	       805	80000154	40565eb3	sra	x29,x12,x5	 x12:0x80000000  x5:0xf3703d45 x29=0xfc000000
         808000	       806	80000158	1c06b213	sltiu	x4,x13,448	 x13:0xa796efff  x4=0x00000000
         809000	       807	8000015c	01901c13	slli	x24,x0,0x19	  x0:0x00000000 x24=0x00000000
         813000	       811	80000160	0291a033	mulhsu	x0,x3,x9	  x3:0x80000000  x9:0x00000000  x0=0x00000000
         814000	       812	80000164	01a79b33	sll	x22,x15,x26	 x15:0xfb70d7f4 x26:0x80000000 x22=0xfb70d7f4
         815000	       813	80000168	7e6b4993	xori	x19,x22,2022	 x22:0xfb70d7f4 x19=0xfb70d012
         816000	       814	8000016c	6af1	c.lui	x21,0x1c	 x21=0x0001c000
         817000	       815	8000016e	717d	c.addi16sp	x2,-16	  x2:0x00000000  x2=0xfffffff0
         818000	       816	80000170	01065eb3	srl	x29,x12,x16	 x12:0x80000000 x16:0x5c56a460 x29=0x80000000
         819000	       817	80000174	47a1	c.li	x15,8	 x15=0x00000008
         820000	       818	80000176	8299	c.srli	x13,0x6	 x13:0xa796efff x13=0x029e5bbf
         821000	       819	80000178	8ed5	c.or	x13,x13	 x13:0x029e5bbf x13:0x029e5bbf x13=0x029e5bbf
         822000	       820	8000017a	01d7e833	or	x16,x15,x29	 x15:0x00000008 x29:0x80000000 x16=0x80000008
         823000	       821	8000017e	4063d193	srai	x3,x7,0x6	  x7:0x00000000  x3=0x00000000
         824000	       822	80000182	9f72	c.add	x30,x28	 x30:0xa55abb79 x28:0x00000000 x30=0xa55abb79
         825000	       823	80000184	63d1	c.lui	x7,0x14	  x7=0x00014000
         826000	       824	80000186	415307b3	sub	x15,x6,x21	  x6:0x19c99a3e x21:0x0001c000 x15=0x19c7da3e
         863000	       861	8000018a	021bc3b3	div	x7,x23,x1	 x23:0xf6a0e1fe  x1:0x80000000  x7=0x00000000
         864000	       862	8000018e	8df5	c.and	x11,x13	 x11:0x00000005 x13:0x029e5bbf x11=0x00000005
         865000	       863	80000190	8ea9	c.xor	x13,x10	 x13:0x029e5bbf x10:0x00000000 x13=0x029e5bbf
         866000	       864	80000192	419557b3	sra	x15,x10,x25	 x10:0x00000000 x25:0x00000000 x15=0x00000000
         867000	       865	80000196	527d	c.li	x4,-1	  x4=0xffffffff
         868000	       866	80000198	0092c933	xor	x18,x5,x9	  x5:0xf3703d45  x9:0x00000000 x18=0xf3703d45
         870000	       868	8000019c	023ed433	divu	x8,x29,x3	 x29:0x80000000  x3:0x00000000  x8=0xffffffff
         871000	       869	800001a0	197d	c.addi	x18,-1	 x18:0xf3703d45 x18=0xf3703d44
         872000	       870	800001a2	4155d9b3	sra	x19,x11,x21	 x11:0x00000005 x21:0x0001c000 x19=0x00000005
         875000	       873	800001a6	02ef8033	mul	x0,x31,x14	 x31:0x00000001 x14:0x00000000  x0=0x00000000
         876000	       874	800001aa	41f68cb3	sub	x25,x13,x31	 x13:0x029e5bbf x31:0x00000001 x25=0x029e5bbe
         877000	       875	800001ae	6111	c.addi16sp	x2,256	  x2:0xfffffff0  x2=0x000000f0
         879000	       877	800001b0	029d64b3	rem	x9,x26,x9	 x26:0x80000000  x9:0x00000000  x9=0x80000000
         880000	       878	800001b4	402ad233	sra	x4,x21,x2	 x21:0x0001c000  x2:0x000000f0  x4=0x00000001
         881000	       879	800001b8	403b5793	srai	x15,x22,0x3	 x22:0xfb70d7f4 x15=0xff6e1afe
         882000	       880	800001bc	0001	c.addi	x0,0	  x0:0x00000000  x0=0x00000000
         883000	       881	800001be	6b05	c.lui	x22,0x1	 x22=0x00001000
         887000	       885	800001c0	0292abb3	mulhsu	x23,x5,x9	  x5:0xf3703d45  x9:0x80000000 x23=0xf9b81ea2
         888000	       886	800001c4	6b00e3b7	lui	x7,0x6b00e	  x7=0x6b00e000
         889000	       887	800001c8	01f5e033	or	x0,x11,x31	 x11:0x00000005 x31:0x00000001  x0=0x00000000
         890000	       888	800001cc	92de	c.add	x5,x23	  x5:0xf3703d45 x23:0xf9b81ea2  x5=0xed285be7
         891000	       889	800001ce	05c5	c.addi	x11,17	 x11:0x00000005 x11=0x00000016
         892000	       890	800001d0	13eae693	ori	x13,x21,318	 x21:0x0001c000 x13=0x0001c13e
         893000	       891	800001d4	010f0b33	add	x22,x30,x16	 x30:0xa55abb79 x16:0x80000008 x22=0x255abb81
         894000	       892	800001d8	8e95	c.sub	x13,x13	 x13:0x0001c13e x13:0x0001c13e x13=0x00000000
         895000	       893	800001da	01230033	add	x0,x6,x18	  x6:0x19c99a3e x18:0xf3703d44  x0=0x00000000
         896000	       894	800001de	8db5	c.xor	x11,x13	 x11:0x00000016 x13:0x00000000 x11=0x00000016
         933000	       931	800001e0	03b55333	divu	x6,x10,x27	 x10:0x00000000 x27:0x80006e64  x6=0x00000000
         934000	       932	800001e4	86d9	c.srai	x13,0x16	 x13:0x00000000 x13=0x00000000
         935000	       933	800001e6	717d	c.addi16sp	x2,-16	  x2:0x000000f0  x2=0x000000e0
         936000	       934	800001e8	5fa5e397	auipc	x7,0x5fa5e	  x7=0xdfa5e1e8
         937000	       935	800001ec	0001	c.addi	x0,0	  x0:0x00000000  x0=0x00000000
         974000	       972	800001ee	02c7d833	divu	x16,x15,x12	 x15:0xff6e1afe x12:0x80000000 x16=0x00000001
         975000	       973	800001f2	0032d013	srli	x0,x5,0x3	  x5:0xed285be7  x0=0x00000000
         976000	       974	800001f6	6c19	c.lui	x24,0x6	 x24=0x00006000
         977000	       975	800001f8	87b2	c.mv	x15,x12	  x0:0x00000000 x12:0x80000000 x15=0x80000000
         978000	       976	800001fa	fd480393	addi	x7,x16,-44	 x16:0x00000001  x7=0xffffffd5
         979000	       977	800001fe	00728d33	add	x26,x5,x7	  x5:0xed285be7  x7:0xffffffd5 x26=0xed285bbc
         980000	       978	80000202	00fcc233	xor	x4,x25,x15	 x25:0x029e5bbe x15:0x80000000  x4=0x829e5bbe
         981000	       979	80000206	5b582fb7	lui	x31,0x5b582	 x31=0x5b582000
         982000	       980	8000020a	73ef8f93	addi	x31,x31,1854	 x31:0x5b582000 x31=0x5b58273e
         983000	       981	8000020e	4201	c.li	x4,0	  x4=0x00000000
         984000	       982	80000210	4f05	c.li	x30,1	 x30=0x00000001
         985000	       983	80000212	4285	c.li	x5,1	  x5=0x00000001
         986000	       984	80000214	4e81	c.li	x29,0	 x29=0x00000000
         987000	       985	80000216	4c81	c.li	x25,0	 x25=0x00000000
         988000	       986	80000218	4501	c.li	x10,0	 x10=0x00000000
         989000	       987	8000021a	49a71e37	lui	x28,0x49a71	 x28=0x49a71000
         990000	       988	8000021e	9b0e0e13	addi	x28,x28,-1616	 x28:0x49a71000 x28=0x49a709b0
         991000	       989	80000222	4c01	c.li	x24,0	 x24=0x00000000
         992000	       990	80000224	4601	c.li	x12,0	 x12=0x00000000
         993000	       991	80000226	0795	c.addi	x15,5	 x15:0x80000000 x15=0x80000005
         996000	       994	80000228	032f8b33	mul	x22,x31,x18	 x31:0x5b58273e x18:0xf3703d44 x22=0x49e43278
         997000	       995	8000022c	8916	c.mv	x18,x5	  x0:0x00000000  x5:0x00000001 x18=0x00000001
         999000	       997	8000022e	02c6c6b3	div	x13,x13,x12	 x13:0x00000000 x12:0x00000000 x13=0xffffffff
        1000000	       998	80000232	0001	c.addi	x0,0	  x0:0x00000000  x0=0x00000000
        1037000	      1035	80000234	0343dab3	divu	x21,x7,x20	  x7:0xffffffd5 x20:0x8000bc84 x21=0x00000001
        1038000	      1036	80000238	d163e297	auipc	x5,0xd163e	  x5=0x5163e238
        1039000	      1037	8000023c	117d	c.addi	x2,-1	  x2:0x000000e0  x2=0x000000df
        1040000	      1038	8000023e	01b582b3	add	x5,x11,x27	 x11:0x00000016 x27:0x80006e64  x5=0x80006e7a
        1041000	      1039	80000242	17fd	c.addi	x15,-1	 x15:0x80000005 x15=0x80000004
        1043000	      1041	80000244	03dd6033	rem	x0,x26,x29	 x26:0xed285bbc x29:0x00000000  x0=0x00000000
        1044000	      1042	80000248	00d982b3	add	x5,x19,x13	 x19:0x00000005 x13:0xffffffff  x5=0x00000004
        1045000	      1043	8000024c	6bdd91b7	lui	x3,0x6bdd9	  x3=0x6bdd9000
        1046000	      1044	80000250	4ad5	c.li	x21,21	 x21=0x00000015
        1048000	      1046	80000252	024deb33	rem	x22,x27,x4	 x27:0x80006e64  x4:0x00000000 x22=0x80006e64
        1049000	      1047	80000256	cd912897	auipc	x17,0xcd912	 x17=0x4d912256
        1050000	      1048	8000025a	0001	c.addi	x0,0	  x0:0x00000000  x0=0x00000000
        1051000	      1049	8000025c	99f6	c.add	x19,x29	 x19:0x00000005 x29:0x00000000 x19=0x00000005
        1052000	      1050	8000025e	bb592eb7	lui	x29,0xbb592	 x29=0xbb592000
        1053000	      1051	80000262	4bf6cc93	xori	x25,x13,1215	 x13:0xffffffff x25=0xfffffb40
        1054000	      1052	80000266	0194	c.addi4spn	x13,x2,192	 x13=0x0000019f
        1091000	      1089	80000268	039cd3b3	divu	x7,x25,x25	 x25:0xfffffb40 x25:0xfffffb40  x7=0x00000001
        1092000	      1090	8000026c	11fd	c.addi	x3,-1	  x3:0x6bdd9000  x3=0x6bdd8fff
        1093000	      1091	8000026e	8e22	c.mv	x28,x8	  x0:0x00000000  x8:0xffffffff x28=0xffffffff
        1094000	      1092	80000270	41b95f33	sra	x30,x18,x27	 x18:0x00000001 x27:0x80006e64 x30=0x00000000
        1095000	      1093	80000274	8ef5	c.and	x13,x13	 x13:0x0000019f x13:0x0000019f x13=0x0000019f
        1098000	      1096	80000276	03db8133	mul	x2,x23,x29	 x23:0xf9b81ea2 x29:0xbb592000  x2=0x00264000
        1100000	      1098	8000027a	024061b3	rem	x3,x0,x4	  x0:0x00000000  x4:0x00000000  x3=0x00000000
        1101000	      1099	8000027e	00000717	auipc	x14,0x0	 x14=0x8000027e
        1102000	      1100	80000282	00c70713	addi	x14,x14,12	 x14:0x8000027e x14=0x8000028a
        1104000	      1102	80000286	00070067	jalr	x0,0(x14)	 x14:0x8000028a  x0=0x00000000
        1105000	      1103	8000028a	4185	c.li	x3,1	  x3=0x00000001
        1106000	      1104	8000028c	00000073	ecall	
        1110000	      1108	80000000	6640106f	jal	x0,80001664	  x0=0x00000000
        1111000	      1109	80001664	340d9df3	csrrw	x27,mscratch,x27	 x27:0x80006e64 x27=0x8000bc84
        1112000	      1110	80001668	000a0db3	add	x27,x20,x0	 x20:0x8000bc84  x0:0x00000000 x27=0x8000bc84
        1113000	      1111	8000166c	f84d8d93	addi	x27,x27,-124	 x27:0x8000bc84 x27=0x8000bc08
        1115000	      1113	80001670	001da223	sw	x1,4(x27)	 x27:0x8000bc08  x1:0x80000000 PA:0x8000bc0c store:0x80000000 load:0x00000000
        1117000	      1115	80001674	002da423	sw	x2,8(x27)	 x27:0x8000bc08  x2:0x00264000 PA:0x8000bc10 store:0x00264000 load:0x00000000
        1119000	      1117	80001678	003da623	sw	x3,12(x27)	 x27:0x8000bc08  x3:0x00000001 PA:0x8000bc14 store:0x00000001 load:0x00000000
        1121000	      1119	8000167c	004da823	sw	x4,16(x27)	 x27:0x8000bc08  x4:0x00000000 PA:0x8000bc18 store:0x00000000 load:0x00000000
        1123000	      1121	80001680	005daa23	sw	x5,20(x27)	 x27:0x8000bc08  x5:0x00000004 PA:0x8000bc1c store:0x00000004 load:0x00000000
        1125000	      1123	80001684	006dac23	sw	x6,24(x27)	 x27:0x8000bc08  x6:0x00000000 PA:0x8000bc20 store:0x00000000 load:0x00000000
        1127000	      1125	80001688	007dae23	sw	x7,28(x27)	 x27:0x8000bc08  x7:0x00000001 PA:0x8000bc24 store:0x00000001 load:0x00000000
        1129000	      1127	8000168c	028da023	sw	x8,32(x27)	 x27:0x8000bc08  x8:0xffffffff PA:0x8000bc28 store:0xffffffff load:0x00000000
        1131000	      1129	80001690	029da223	sw	x9,36(x27)	 x27:0x8000bc08  x9:0x80000000 PA:0x8000bc2c store:0x80000000 load:0x00000000
        1133000	      1131	80001694	02ada423	sw	x10,40(x27)	 x27:0x8000bc08 x10:0x00000000 PA:0x8000bc30 store:0x00000000 load:0x00000000
        1135000	      1133	80001698	02bda623	sw	x11,44(x27)	 x27:0x8000bc08 x11:0x00000016 PA:0x8000bc34 store:0x00000016 load:0x00000000
        1137000	      1135	8000169c	02cda823	sw	x12,48(x27)	 x27:0x8000bc08 x12:0x00000000 PA:0x8000bc38 store:0x00000000 load:0x00000000
        1139000	      1137	800016a0	02ddaa23	sw	x13,52(x27)	 x27:0x8000bc08 x13:0x0000019f PA:0x8000bc3c store:0x0000019f load:0x00000000
        1141000	      1139	800016a4	02edac23	sw	x14,56(x27)	 x27:0x8000bc08 x14:0x8000028a PA:0x8000bc40 store:0x8000028a load:0x00000000
        1143000	      1141	800016a8	02fdae23	sw	x15,60(x27)	 x27:0x8000bc08 x15:0x80000004 PA:0x8000bc44 store:0x80000004 load:0x00000000
        1145000	      1143	800016ac	050da023	sw	x16,64(x27)	 x27:0x8000bc08 x16:0x00000001 PA:0x8000bc48 store:0x00000001 load:0x00000000
        1147000	      1145	800016b0	051da223	sw	x17,68(x27)	 x27:0x8000bc08 x17:0x4d912256 PA:0x8000bc4c store:0x4d912256 load:0x00000000
        1149000	      1147	800016b4	052da423	sw	x18,72(x27)	 x27:0x8000bc08 x18:0x00000001 PA:0x8000bc50 store:0x00000001 load:0x00000000
        1151000	      1149	800016b8	053da623	sw	x19,76(x27)	 x27:0x8000bc08 x19:0x00000005 PA:0x8000bc54 store:0x00000005 load:0x00000000
        1153000	      1151	800016bc	054da823	sw	x20,80(x27)	 x27:0x8000bc08 x20:0x8000bc84 PA:0x8000bc58 store:0x8000bc84 load:0x00000000
        1155000	      1153	800016c0	055daa23	sw	x21,84(x27)	 x27:0x8000bc08 x21:0x00000015 PA:0x8000bc5c store:0x00000015 load:0x00000000
        1157000	      1155	800016c4	056dac23	sw	x22,88(x27)	 x27:0x8000bc08 x22:0x80006e64 PA:0x8000bc60 store:0x80006e64 load:0x00000000
        1159000	      1157	800016c8	057dae23	sw	x23,92(x27)	 x27:0x8000bc08 x23:0xf9b81ea2 PA:0x8000bc64 store:0xf9b81ea2 load:0x00000000
        1161000	      1159	800016cc	078da023	sw	x24,96(x27)	 x27:0x8000bc08 x24:0x00000000 PA:0x8000bc68 store:0x00000000 load:0x00000000
        1163000	      1161	800016d0	079da223	sw	x25,100(x27)	 x27:0x8000bc08 x25:0xfffffb40 PA:0x8000bc6c store:0xfffffb40 load:0x00000000
        1165000	      1163	800016d4	07ada423	sw	x26,104(x27)	 x27:0x8000bc08 x26:0xed285bbc PA:0x8000bc70 store:0xed285bbc load:0x00000000
        1167000	      1165	800016d8	07bda623	sw	x27,108(x27)	 x27:0x8000bc08 x27:0x8000bc08 PA:0x8000bc74 store:0x8000bc08 load:0x00000000
        1169000	      1167	800016dc	07cda823	sw	x28,112(x27)	 x27:0x8000bc08 x28:0xffffffff PA:0x8000bc78 store:0xffffffff load:0x00000000
        1171000	      1169	800016e0	07ddaa23	sw	x29,116(x27)	 x27:0x8000bc08 x29:0xbb592000 PA:0x8000bc7c store:0xbb592000 load:0x00000000
        1173000	      1171	800016e4	07edac23	sw	x30,120(x27)	 x27:0x8000bc08 x30:0x00000000 PA:0x8000bc80 store:0x00000000 load:0x00000000
        1175000	      1173	800016e8	07fdae23	sw	x31,124(x27)	 x27:0x8000bc08 x31:0x5b58273e PA:0x8000bc84 store:0x5b58273e load:0x00000000
        1176000	      1174	800016ec	34102ff3	csrrs	x31,mepc,x0	  x0:0x00000000 x31=0x8000028c
        1177000	      1175	800016f0	34202ff3	csrrs	x31,mcause,x0	  x0:0x00000000 x31=0x00000008
        1178000	      1176	800016f4	492d	c.li	x18,11	 x18=0x0000000b
        1179000	      1177	800016f6	012f8d63	beq	x31,x18,80001710	 x31:0x00000008 x18:0x0000000b
        1180000	      1178	800016fa	4909	c.li	x18,2	 x18=0x00000002
        1181000	      1179	800016fc	0b2f8463	beq	x31,x18,800017a4	 x31:0x00000008 x18:0x00000002
        1182000	      1180	80001700	34302973	csrrs	x18,mtval,x0	  x0:0x00000000 x18=0x00000000
        1183000	      1181	80001704	fffff717	auipc	x14,0xfffff	 x14=0x80000704
        1184000	      1182	80001708	b8670713	addi	x14,x14,-1146	 x14:0x80000704 x14=0x8000028a
        1186000	      1184	8000170c	000700e7	jalr	x1,0(x14)	 x14:0x8000028a  x1=0x80001710
        1187000	      1185	8000028a	4185	c.li	x3,1	  x3=0x00000001
        1188000	      1186	8000028c	00000073	ecall	
        1192000	      1190	80000000	6640106f	jal	x0,80001664	  x0=0x00000000
        1193000	      1191	80001664	340d9df3	csrrw	x27,mscratch,x27	 x27:0x8000bc08 x27=0x80006e64
        1194000	      1192	80001668	000a0db3	add	x27,x20,x0	 x20:0x8000bc84  x0:0x00000000 x27=0x8000bc84
        1195000	      1193	8000166c	f84d8d93	addi	x27,x27,-124	 x27:0x8000bc84 x27=0x8000bc08
        1197000	      1195	80001670	001da223	sw	x1,4(x27)	 x27:0x8000bc08  x1:0x80001710 PA:0x8000bc0c store:0x80001710 load:0x00000000
        1199000	      1197	80001674	002da423	sw	x2,8(x27)	 x27:0x8000bc08  x2:0x00264000 PA:0x8000bc10 store:0x00264000 load:0x00000000
        1201000	      1199	80001678	003da623	sw	x3,12(x27)	 x27:0x8000bc08  x3:0x00000001 PA:0x8000bc14 store:0x00000001 load:0x00000000
        1203000	      1201	8000167c	004da823	sw	x4,16(x27)	 x27:0x8000bc08  x4:0x00000000 PA:0x8000bc18 store:0x00000000 load:0x00000000
        1205000	      1203	80001680	005daa23	sw	x5,20(x27)	 x27:0x8000bc08  x5:0x00000004 PA:0x8000bc1c store:0x00000004 load:0x00000000
        1207000	      1205	80001684	006dac23	sw	x6,24(x27)	 x27:0x8000bc08  x6:0x00000000 PA:0x8000bc20 store:0x00000000 load:0x00000000
        1209000	      1207	80001688	007dae23	sw	x7,28(x27)	 x27:0x8000bc08  x7:0x00000001 PA:0x8000bc24 store:0x00000001 load:0x00000000
        1211000	      1209	8000168c	028da023	sw	x8,32(x27)	 x27:0x8000bc08  x8:0xffffffff PA:0x8000bc28 store:0xffffffff load:0x00000000
        1213000	      1211	80001690	029da223	sw	x9,36(x27)	 x27:0x8000bc08  x9:0x80000000 PA:0x8000bc2c store:0x80000000 load:0x00000000
        1215000	      1213	80001694	02ada423	sw	x10,40(x27)	 x27:0x8000bc08 x10:0x00000000 PA:0x8000bc30 store:0x00000000 load:0x00000000
        1217000	      1215	80001698	02bda623	sw	x11,44(x27)	 x27:0x8000bc08 x11:0x00000016 PA:0x8000bc34 store:0x00000016 load:0x00000000
        1219000	      1217	8000169c	02cda823	sw	x12,48(x27)	 x27:0x8000bc08 x12:0x00000000 PA:0x8000bc38 store:0x00000000 load:0x00000000
        1221000	      1219	800016a0	02ddaa23	sw	x13,52(x27)	 x27:0x8000bc08 x13:0x0000019f PA:0x8000bc3c store:0x0000019f load:0x00000000
        1223000	      1221	800016a4	02edac23	sw	x14,56(x27)	 x27:0x8000bc08 x14:0x8000028a PA:0x8000bc40 store:0x8000028a load:0x00000000
        1225000	      1223	800016a8	02fdae23	sw	x15,60(x27)	 x27:0x8000bc08 x15:0x80000004 PA:0x8000bc44 store:0x80000004 load:0x00000000
        1227000	      1225	800016ac	050da023	sw	x16,64(x27)	 x27:0x8000bc08 x16:0x00000001 PA:0x8000bc48 store:0x00000001 load:0x00000000
        1229000	      1227	800016b0	051da223	sw	x17,68(x27)	 x27:0x8000bc08 x17:0x4d912256 PA:0x8000bc4c store:0x4d912256 load:0x00000000
        1231000	      1229	800016b4	052da423	sw	x18,72(x27)	 x27:0x8000bc08 x18:0x00000000 PA:0x8000bc50 store:0x00000000 load:0x00000000
        1233000	      1231	800016b8	053da623	sw	x19,76(x27)	 x27:0x8000bc08 x19:0x00000005 PA:0x8000bc54 store:0x00000005 load:0x00000000
        1235000	      1233	800016bc	054da823	sw	x20,80(x27)	 x27:0x8000bc08 x20:0x8000bc84 PA:0x8000bc58 store:0x8000bc84 load:0x00000000
        1237000	      1235	800016c0	055daa23	sw	x21,84(x27)	 x27:0x8000bc08 x21:0x00000015 PA:0x8000bc5c store:0x00000015 load:0x00000000
        1239000	      1237	800016c4	056dac23	sw	x22,88(x27)	 x27:0x8000bc08 x22:0x80006e64 PA:0x8000bc60 store:0x80006e64 load:0x00000000
        1241000	      1239	800016c8	057dae23	sw	x23,92(x27)	 x27:0x8000bc08 x23:0xf9b81ea2 PA:0x8000bc64 store:0xf9b81ea2 load:0x00000000
        1243000	      1241	800016cc	078da023	sw	x24,96(x27)	 x27:0x8000bc08 x24:0x00000000 PA:0x8000bc68 store:0x00000000 load:0x00000000
        1245000	      1243	800016d0	079da223	sw	x25,100(x27)	 x27:0x8000bc08 x25:0xfffffb40 PA:0x8000bc6c store:0xfffffb40 load:0x00000000
        1247000	      1245	800016d4	07ada423	sw	x26,104(x27)	 x27:0x8000bc08 x26:0xed285bbc PA:0x8000bc70 store:0xed285bbc load:0x00000000
        1249000	      1247	800016d8	07bda623	sw	x27,108(x27)	 x27:0x8000bc08 x27:0x8000bc08 PA:0x8000bc74 store:0x8000bc08 load:0x00000000
        1251000	      1249	800016dc	07cda823	sw	x28,112(x27)	 x27:0x8000bc08 x28:0xffffffff PA:0x8000bc78 store:0xffffffff load:0x00000000
        1253000	      1251	800016e0	07ddaa23	sw	x29,116(x27)	 x27:0x8000bc08 x29:0xbb592000 PA:0x8000bc7c store:0xbb592000 load:0x00000000
        1255000	      1253	800016e4	07edac23	sw	x30,120(x27)	 x27:0x8000bc08 x30:0x00000000 PA:0x8000bc80 store:0x00000000 load:0x00000000
        1257000	      1255	800016e8	07fdae23	sw	x31,124(x27)	 x27:0x8000bc08 x31:0x00000008 PA:0x8000bc84 store:0x00000008 load:0x00000000
        1258000	      1256	800016ec	34102ff3	csrrs	x31,mepc,x0	  x0:0x00000000 x31=0x8000028c
        1259000	      1257	800016f0	34202ff3	csrrs	x31,mcause,x0	  x0:0x00000000 x31=0x0000000b
        1260000	      1258	800016f4	492d	c.li	x18,11	 x18=0x0000000b
        1262000	      1260	800016f6	012f8d63	beq	x31,x18,80001710	 x31:0x0000000b x18:0x0000000b
        1264000	      1262	80001710	ffffff97	auipc	x31,0xfffff	 x31=0x80000710
        1265000	      1263	80001714	970f8f93	addi	x31,x31,-1680	 x31:0x80000710 x31=0x80000080
        1267000	      1265	80001718	000fa023	sw	x0,0(x31)	 x31:0x80000080  x0:0x00000000 PA:0x80000080 store:0x00000000 load:0x00000000
        1269000	      1267	8000171c	001fa223	sw	x1,4(x31)	 x31:0x80000080  x1:0x80001710 PA:0x80000084 store:0x80001710 load:0x00000000
        1271000	      1269	80001720	002fa423	sw	x2,8(x31)	 x31:0x80000080  x2:0x00264000 PA:0x80000088 store:0x00264000 load:0x00000000
        1273000	      1271	80001724	003fa623	sw	x3,12(x31)	 x31:0x80000080  x3:0x00000001 PA:0x8000008c store:0x00000001 load:0x00000000
        1275000	      1273	80001728	004fa823	sw	x4,16(x31)	 x31:0x80000080  x4:0x00000000 PA:0x80000090 store:0x00000000 load:0x00000000
        1277000	      1275	8000172c	005faa23	sw	x5,20(x31)	 x31:0x80000080  x5:0x00000004 PA:0x80000094 store:0x00000004 load:0x00000000
        1279000	      1277	80001730	006fac23	sw	x6,24(x31)	 x31:0x80000080  x6:0x00000000 PA:0x80000098 store:0x00000000 load:0x00000000
        1281000	      1279	80001734	007fae23	sw	x7,28(x31)	 x31:0x80000080  x7:0x00000001 PA:0x8000009c store:0x00000001 load:0x00000000
        1283000	      1281	80001738	028fa023	sw	x8,32(x31)	 x31:0x80000080  x8:0xffffffff PA:0x800000a0 store:0xffffffff load:0x00000000
        1285000	      1283	8000173c	029fa223	sw	x9,36(x31)	 x31:0x80000080  x9:0x80000000 PA:0x800000a4 store:0x80000000 load:0x00000000
        1287000	      1285	80001740	02afa423	sw	x10,40(x31)	 x31:0x80000080 x10:0x00000000 PA:0x800000a8 store:0x00000000 load:0x00000000
        1289000	      1287	80001744	02bfa623	sw	x11,44(x31)	 x31:0x80000080 x11:0x00000016 PA:0x800000ac store:0x00000016 load:0x00000000
        1291000	      1289	80001748	02cfa823	sw	x12,48(x31)	 x31:0x80000080 x12:0x00000000 PA:0x800000b0 store:0x00000000 load:0x00000000
        1293000	      1291	8000174c	02dfaa23	sw	x13,52(x31)	 x31:0x80000080 x13:0x0000019f PA:0x800000b4 store:0x0000019f load:0x00000000
        1295000	      1293	80001750	02efac23	sw	x14,56(x31)	 x31:0x80000080 x14:0x8000028a PA:0x800000b8 store:0x8000028a load:0x00000000
        1297000	      1295	80001754	02ffae23	sw	x15,60(x31)	 x31:0x80000080 x15:0x80000004 PA:0x800000bc store:0x80000004 load:0x00000000
        1299000	      1297	80001758	050fa023	sw	x16,64(x31)	 x31:0x80000080 x16:0x00000001 PA:0x800000c0 store:0x00000001 load:0x00000000
        1301000	      1299	8000175c	051fa223	sw	x17,68(x31)	 x31:0x80000080 x17:0x4d912256 PA:0x800000c4 store:0x4d912256 load:0x00000000
        1303000	      1301	80001760	052fa423	sw	x18,72(x31)	 x31:0x80000080 x18:0x0000000b PA:0x800000c8 store:0x0000000b load:0x00000000
        1305000	      1303	80001764	053fa623	sw	x19,76(x31)	 x31:0x80000080 x19:0x00000005 PA:0x800000cc store:0x00000005 load:0x00000000
        1307000	      1305	80001768	054fa823	sw	x20,80(x31)	 x31:0x80000080 x20:0x8000bc84 PA:0x800000d0 store:0x8000bc84 load:0x00000000
        1309000	      1307	8000176c	055faa23	sw	x21,84(x31)	 x31:0x80000080 x21:0x00000015 PA:0x800000d4 store:0x00000015 load:0x00000000
        1311000	      1309	80001770	056fac23	sw	x22,88(x31)	 x31:0x80000080 x22:0x80006e64 PA:0x800000d8 store:0x80006e64 load:0x00000000
        1313000	      1311	80001774	057fae23	sw	x23,92(x31)	 x31:0x80000080 x23:0xf9b81ea2 PA:0x800000dc store:0xf9b81ea2 load:0x00000000
        1315000	      1313	80001778	078fa023	sw	x24,96(x31)	 x31:0x80000080 x24:0x00000000 PA:0x800000e0 store:0x00000000 load:0x00000000
        1317000	      1315	8000177c	079fa223	sw	x25,100(x31)	 x31:0x80000080 x25:0xfffffb40 PA:0x800000e4 store:0xfffffb40 load:0x00000000
        1319000	      1317	80001780	07afa423	sw	x26,104(x31)	 x31:0x80000080 x26:0xed285bbc PA:0x800000e8 store:0xed285bbc load:0x00000000
        1321000	      1319	80001784	07bfa623	sw	x27,108(x31)	 x31:0x80000080 x27:0x8000bc08 PA:0x800000ec store:0x8000bc08 load:0x00000000
        1323000	      1321	80001788	07cfa823	sw	x28,112(x31)	 x31:0x80000080 x28:0xffffffff PA:0x800000f0 store:0xffffffff load:0x00000000
        1325000	      1323	8000178c	07dfaa23	sw	x29,116(x31)	 x31:0x80000080 x29:0xbb592000 PA:0x800000f4 store:0xbb592000 load:0x00000000
        1327000	      1325	80001790	07efac23	sw	x30,120(x31)	 x31:0x80000080 x30:0x00000000 PA:0x800000f8 store:0x00000000 load:0x00000000
        1329000	      1327	80001794	07ffae23	sw	x31,124(x31)	 x31:0x80000080 x31:0x80000080 PA:0x800000fc store:0x80000080 load:0x00000000
        1330000	      1328	80001798	fffff717	auipc	x14,0xfffff	 x14=0x80000798
        1331000	      1329	8000179c	af870713	addi	x14,x14,-1288	 x14:0x80000798 x14=0x80000290
        1333000	      1331	800017a0	00070067	jalr	x0,0(x14)	 x14:0x80000290  x0=0x00000000
        1334000	      1332	80000290	00002f17	auipc	x30,0x2	 x30=0x80002290
        1336000	      1334	80000294	d63f2823	sw	x3,-656(x30)	 x30:0x80002290  x3:0x00000001 PA:0x80002000 store:0x00000001 load:0x00000000
        1338000	      1336	80000298	bfe5	c.j	80000290	
        1339000	      1337	80000290	00002f17	auipc	x30,0x2	 x30=0x80002290
        1341000	      1339	80000294	d63f2823	sw	x3,-656(x30)	 x30:0x80002290  x3:0x00000001 PA:0x80002000 store:0x00000001 load:0x00000000
        1343000	      1341	80000298	bfe5	c.j	80000290	
        1344000	      1342	80000290	00002f17	auipc	x30,0x2	 x30=0x80002290
        1346000	      1344	80000294	d63f2823	sw	x3,-656(x30)	 x30:0x80002290  x3:0x00000001 PA:0x80002000 store:0x00000001 load:0x00000000
        1348000	      1346	80000298	bfe5	c.j	80000290	
        1349000	      1347	80000290	00002f17	auipc	x30,0x2	 x30=0x80002290
        1351000	      1349	80000294	d63f2823	sw	x3,-656(x30)	 x30:0x80002290  x3:0x00000001 PA:0x80002000 store:0x00000001 load:0x00000000
        1353000	      1351	80000298	bfe5	c.j	80000290	
        1354000	      1352	80000290	00002f17	auipc	x30,0x2	 x30=0x80002290
        1356000	      1354	80000294	d63f2823	sw	x3,-656(x30)	 x30:0x80002290  x3:0x00000001 PA:0x80002000 store:0x00000001 load:0x00000000
        1358000	      1356	80000298	bfe5	c.j	80000290	
        1359000	      1357	80000290	00002f17	auipc	x30,0x2	 x30=0x80002290
        1361000	      1359	80000294	d63f2823	sw	x3,-656(x30)	 x30:0x80002290  x3:0x00000001 PA:0x80002000 store:0x00000001 load:0x00000000
        1363000	      1361	80000298	bfe5	c.j	80000290	
        1364000	      1362	80000290	00002f17	auipc	x30,0x2	 x30=0x80002290
        1366000	      1364	80000294	d63f2823	sw	x3,-656(x30)	 x30:0x80002290  x3:0x00000001 PA:0x80002000 store:0x00000001 load:0x00000000
        1368000	      1366	80000298	bfe5	c.j	80000290	
        1369000	      1367	80000290	00002f17	auipc	x30,0x2	 x30=0x80002290
        1371000	      1369	80000294	d63f2823	sw	x3,-656(x30)	 x30:0x80002290  x3:0x00000001 PA:0x80002000 store:0x00000001 load:0x00000000
        1373000	      1371	80000298	bfe5	c.j	80000290	
        1374000	      1372	80000290	00002f17	auipc	x30,0x2	 x30=0x80002290
        1376000	      1374	80000294	d63f2823	sw	x3,-656(x30)	 x30:0x80002290  x3:0x00000001 PA:0x80002000 store:0x00000001 load:0x00000000
        1378000	      1376	80000298	bfe5	c.j	80000290	
        1379000	      1377	80000290	00002f17	auipc	x30,0x2	 x30=0x80002290
        1381000	      1379	80000294	d63f2823	sw	x3,-656(x30)	 x30:0x80002290  x3:0x00000001 PA:0x80002000 store:0x00000001 load:0x00000000
        1383000	      1381	80000298	bfe5	c.j	80000290	
        1384000	      1382	80000290	00002f17	auipc	x30,0x2	 x30=0x80002290
        1386000	      1384	80000294	d63f2823	sw	x3,-656(x30)	 x30:0x80002290  x3:0x00000001 PA:0x80002000 store:0x00000001 load:0x00000000
        1388000	      1386	80000298	bfe5	c.j	80000290	
        1389000	      1387	80000290	00002f17	auipc	x30,0x2	 x30=0x80002290
        1391000	      1389	80000294	d63f2823	sw	x3,-656(x30)	 x30:0x80002290  x3:0x00000001 PA:0x80002000 store:0x00000001 load:0x00000000
        1393000	      1391	80000298	bfe5	c.j	80000290	
        1394000	      1392	80000290	00002f17	auipc	x30,0x2	 x30=0x80002290
        1396000	      1394	80000294	d63f2823	sw	x3,-656(x30)	 x30:0x80002290  x3:0x00000001 PA:0x80002000 store:0x00000001 load:0x00000000
        1398000	      1396	80000298	bfe5	c.j	80000290	
        1399000	      1397	80000290	00002f17	auipc	x30,0x2	 x30=0x80002290
        1401000	      1399	80000294	d63f2823	sw	x3,-656(x30)	 x30:0x80002290  x3:0x00000001 PA:0x80002000 store:0x00000001 load:0x00000000
        1403000	      1401	80000298	bfe5	c.j	80000290	
        1404000	      1402	80000290	00002f17	auipc	x30,0x2	 x30=0x80002290
        1406000	      1404	80000294	d63f2823	sw	x3,-656(x30)	 x30:0x80002290  x3:0x00000001 PA:0x80002000 store:0x00000001 load:0x00000000
        1408000	      1406	80000298	bfe5	c.j	80000290	
        1409000	      1407	80000290	00002f17	auipc	x30,0x2	 x30=0x80002290
        1411000	      1409	80000294	d63f2823	sw	x3,-656(x30)	 x30:0x80002290  x3:0x00000001 PA:0x80002000 store:0x00000001 load:0x00000000
        1413000	      1411	80000298	bfe5	c.j	80000290	
        1414000	      1412	80000290	00002f17	auipc	x30,0x2	 x30=0x80002290
        1416000	      1414	80000294	d63f2823	sw	x3,-656(x30)	 x30:0x80002290  x3:0x00000001 PA:0x80002000 store:0x00000001 load:0x00000000
        1418000	      1416	80000298	bfe5	c.j	80000290	
        1419000	      1417	80000290	00002f17	auipc	x30,0x2	 x30=0x80002290
        1421000	      1419	80000294	d63f2823	sw	x3,-656(x30)	 x30:0x80002290  x3:0x00000001 PA:0x80002000 store:0x00000001 load:0x00000000
        1423000	      1421	80000298	bfe5	c.j	80000290	
        1424000	      1422	80000290	00002f17	auipc	x30,0x2	 x30=0x80002290
        1426000	      1424	80000294	d63f2823	sw	x3,-656(x30)	 x30:0x80002290  x3:0x00000001 PA:0x80002000 store:0x00000001 load:0x00000000
        1428000	      1426	80000298	bfe5	c.j	80000290	
        1429000	      1427	80000290	00002f17	auipc	x30,0x2	 x30=0x80002290
        1431000	      1429	80000294	d63f2823	sw	x3,-656(x30)	 x30:0x80002290  x3:0x00000001 PA:0x80002000 store:0x00000001 load:0x00000000
        1433000	      1431	80000298	bfe5	c.j	80000290	
        1434000	      1432	80000290	00002f17	auipc	x30,0x2	 x30=0x80002290
        1436000	      1434	80000294	d63f2823	sw	x3,-656(x30)	 x30:0x80002290  x3:0x00000001 PA:0x80002000 store:0x00000001 load:0x00000000
        1438000	      1436	80000298	bfe5	c.j	80000290	
        1439000	      1437	80000290	00002f17	auipc	x30,0x2	 x30=0x80002290
        1441000	      1439	80000294	d63f2823	sw	x3,-656(x30)	 x30:0x80002290  x3:0x00000001 PA:0x80002000 store:0x00000001 load:0x00000000
        1443000	      1441	80000298	bfe5	c.j	80000290	
        1444000	      1442	80000290	00002f17	auipc	x30,0x2	 x30=0x80002290
        1446000	      1444	80000294	d63f2823	sw	x3,-656(x30)	 x30:0x80002290  x3:0x00000001 PA:0x80002000 store:0x00000001 load:0x00000000
        1448000	      1446	80000298	bfe5	c.j	80000290	
        1449000	      1447	80000290	00002f17	auipc	x30,0x2	 x30=0x80002290
        1451000	      1449	80000294	d63f2823	sw	x3,-656(x30)	 x30:0x80002290  x3:0x00000001 PA:0x80002000 store:0x00000001 load:0x00000000
        1453000	      1451	80000298	bfe5	c.j	80000290	
        1454000	      1452	80000290	00002f17	auipc	x30,0x2	 x30=0x80002290
        1456000	      1454	80000294	d63f2823	sw	x3,-656(x30)	 x30:0x80002290  x3:0x00000001 PA:0x80002000 store:0x00000001 load:0x00000000
        1458000	      1456	80000298	bfe5	c.j	80000290	
        1459000	      1457	80000290	00002f17	auipc	x30,0x2	 x30=0x80002290
        1461000	      1459	80000294	d63f2823	sw	x3,-656(x30)	 x30:0x80002290  x3:0x00000001 PA:0x80002000 store:0x00000001 load:0x00000000
        1463000	      1461	80000298	bfe5	c.j	80000290	
        1464000	      1462	80000290	00002f17	auipc	x30,0x2	 x30=0x80002290
        1466000	      1464	80000294	d63f2823	sw	x3,-656(x30)	 x30:0x80002290  x3:0x00000001 PA:0x80002000 store:0x00000001 load:0x00000000
        1468000	      1466	80000298	bfe5	c.j	80000290	
        1469000	      1467	80000290	00002f17	auipc	x30,0x2	 x30=0x80002290
        1471000	      1469	80000294	d63f2823	sw	x3,-656(x30)	 x30:0x80002290  x3:0x00000001 PA:0x80002000 store:0x00000001 load:0x00000000
        1473000	      1471	80000298	bfe5	c.j	80000290	
        1474000	      1472	80000290	00002f17	auipc	x30,0x2	 x30=0x80002290
        1476000	      1474	80000294	d63f2823	sw	x3,-656(x30)	 x30:0x80002290  x3:0x00000001 PA:0x80002000 store:0x00000001 load:0x00000000
        1478000	      1476	80000298	bfe5	c.j	80000290	
        1479000	      1477	80000290	00002f17	auipc	x30,0x2	 x30=0x80002290
        1481000	      1479	80000294	d63f2823	sw	x3,-656(x30)	 x30:0x80002290  x3:0x00000001 PA:0x80002000 store:0x00000001 load:0x00000000
        1483000	      1481	80000298	bfe5	c.j	80000290	
        1484000	      1482	80000290	00002f17	auipc	x30,0x2	 x30=0x80002290
        1486000	      1484	80000294	d63f2823	sw	x3,-656(x30)	 x30:0x80002290  x3:0x00000001 PA:0x80002000 store:0x00000001 load:0x00000000
        1488000	      1486	80000298	bfe5	c.j	80000290	
        1489000	      1487	80000290	00002f17	auipc	x30,0x2	 x30=0x80002290
        1491000	      1489	80000294	d63f2823	sw	x3,-656(x30)	 x30:0x80002290  x3:0x00000001 PA:0x80002000 store:0x00000001 load:0x00000000
        1493000	      1491	80000298	bfe5	c.j	80000290	
        1494000	      1492	80000290	00002f17	auipc	x30,0x2	 x30=0x80002290
        1496000	      1494	80000294	d63f2823	sw	x3,-656(x30)	 x30:0x80002290  x3:0x00000001 PA:0x80002000 store:0x00000001 load:0x00000000
        1498000	      1496	80000298	bfe5	c.j	80000290	
        1499000	      1497	80000290	00002f17	auipc	x30,0x2	 x30=0x80002290
        1501000	      1499	80000294	d63f2823	sw	x3,-656(x30)	 x30:0x80002290  x3:0x00000001 PA:0x80002000 store:0x00000001 load:0x00000000
        1503000	      1501	80000298	bfe5	c.j	80000290	
        1504000	      1502	80000290	00002f17	auipc	x30,0x2	 x30=0x80002290
        1506000	      1504	80000294	d63f2823	sw	x3,-656(x30)	 x30:0x80002290  x3:0x00000001 PA:0x80002000 store:0x00000001 load:0x00000000
        1508000	      1506	80000298	bfe5	c.j	80000290	
        1509000	      1507	80000290	00002f17	auipc	x30,0x2	 x30=0x80002290
        1511000	      1509	80000294	d63f2823	sw	x3,-656(x30)	 x30:0x80002290  x3:0x00000001 PA:0x80002000 store:0x00000001 load:0x00000000
        1513000	      1511	80000298	bfe5	c.j	80000290	
        1514000	      1512	80000290	00002f17	auipc	x30,0x2	 x30=0x80002290
        1516000	      1514	80000294	d63f2823	sw	x3,-656(x30)	 x30:0x80002290  x3:0x00000001 PA:0x80002000 store:0x00000001 load:0x00000000
        1518000	      1516	80000298	bfe5	c.j	80000290	
        1519000	      1517	80000290	00002f17	auipc	x30,0x2	 x30=0x80002290
        1521000	      1519	80000294	d63f2823	sw	x3,-656(x30)	 x30:0x80002290  x3:0x00000001 PA:0x80002000 store:0x00000001 load:0x00000000
        1523000	      1521	80000298	bfe5	c.j	80000290	
        1524000	      1522	80000290	00002f17	auipc	x30,0x2	 x30=0x80002290
        1526000	      1524	80000294	d63f2823	sw	x3,-656(x30)	 x30:0x80002290  x3:0x00000001 PA:0x80002000 store:0x00000001 load:0x00000000
        1528000	      1526	80000298	bfe5	c.j	80000290	
        1529000	      1527	80000290	00002f17	auipc	x30,0x2	 x30=0x80002290
        1531000	      1529	80000294	d63f2823	sw	x3,-656(x30)	 x30:0x80002290  x3:0x00000001 PA:0x80002000 store:0x00000001 load:0x00000000
        1533000	      1531	80000298	bfe5	c.j	80000290	
        1534000	      1532	80000290	00002f17	auipc	x30,0x2	 x30=0x80002290
        1536000	      1534	80000294	d63f2823	sw	x3,-656(x30)	 x30:0x80002290  x3:0x00000001 PA:0x80002000 store:0x00000001 load:0x00000000
        1538000	      1536	80000298	bfe5	c.j	80000290	
        1539000	      1537	80000290	00002f17	auipc	x30,0x2	 x30=0x80002290
        1541000	      1539	80000294	d63f2823	sw	x3,-656(x30)	 x30:0x80002290  x3:0x00000001 PA:0x80002000 store:0x00000001 load:0x00000000
        1543000	      1541	80000298	bfe5	c.j	80000290	
        1544000	      1542	80000290	00002f17	auipc	x30,0x2	 x30=0x80002290
        1546000	      1544	80000294	d63f2823	sw	x3,-656(x30)	 x30:0x80002290  x3:0x00000001 PA:0x80002000 store:0x00000001 load:0x00000000
        1548000	      1546	80000298	bfe5	c.j	80000290	
        1549000	      1547	80000290	00002f17	auipc	x30,0x2	 x30=0x80002290
        1551000	      1549	80000294	d63f2823	sw	x3,-656(x30)	 x30:0x80002290  x3:0x00000001 PA:0x80002000 store:0x00000001 load:0x00000000
        1553000	      1551	80000298	bfe5	c.j	80000290	
        1554000	      1552	80000290	00002f17	auipc	x30,0x2	 x30=0x80002290
        1556000	      1554	80000294	d63f2823	sw	x3,-656(x30)	 x30:0x80002290  x3:0x00000001 PA:0x80002000 store:0x00000001 load:0x00000000
        1558000	      1556	80000298	bfe5	c.j	80000290	
        1559000	      1557	80000290	00002f17	auipc	x30,0x2	 x30=0x80002290
        1561000	      1559	80000294	d63f2823	sw	x3,-656(x30)	 x30:0x80002290  x3:0x00000001 PA:0x80002000 store:0x00000001 load:0x00000000
        1563000	      1561	80000298	bfe5	c.j	80000290	
        1564000	      1562	80000290	00002f17	auipc	x30,0x2	 x30=0x80002290
        1566000	      1564	80000294	d63f2823	sw	x3,-656(x30)	 x30:0x80002290  x3:0x00000001 PA:0x80002000 store:0x00000001 load:0x00000000
        1568000	      1566	80000298	bfe5	c.j	80000290	
        1569000	      1567	80000290	00002f17	auipc	x30,0x2	 x30=0x80002290
        1571000	      1569	80000294	d63f2823	sw	x3,-656(x30)	 x30:0x80002290  x3:0x00000001 PA:0x80002000 store:0x00000001 load:0x00000000
        1573000	      1571	80000298	bfe5	c.j	80000290	
        1574000	      1572	80000290	00002f17	auipc	x30,0x2	 x30=0x80002290
        1576000	      1574	80000294	d63f2823	sw	x3,-656(x30)	 x30:0x80002290  x3:0x00000001 PA:0x80002000 store:0x00000001 load:0x00000000
        1578000	      1576	80000298	bfe5	c.j	80000290	
        1579000	      1577	80000290	00002f17	auipc	x30,0x2	 x30=0x80002290
        1581000	      1579	80000294	d63f2823	sw	x3,-656(x30)	 x30:0x80002290  x3:0x00000001 PA:0x80002000 store:0x00000001 load:0x00000000
        1583000	      1581	80000298	bfe5	c.j	80000290	
        1584000	      1582	80000290	00002f17	auipc	x30,0x2	 x30=0x80002290
        1586000	      1584	80000294	d63f2823	sw	x3,-656(x30)	 x30:0x80002290  x3:0x00000001 PA:0x80002000 store:0x00000001 load:0x00000000
        1588000	      1586	80000298	bfe5	c.j	80000290	
        1589000	      1587	80000290	00002f17	auipc	x30,0x2	 x30=0x80002290
        1591000	      1589	80000294	d63f2823	sw	x3,-656(x30)	 x30:0x80002290  x3:0x00000001 PA:0x80002000 store:0x00000001 load:0x00000000
        1593000	      1591	80000298	bfe5	c.j	80000290	
        1594000	      1592	80000290	00002f17	auipc	x30,0x2	 x30=0x80002290
        1596000	      1594	80000294	d63f2823	sw	x3,-656(x30)	 x30:0x80002290  x3:0x00000001 PA:0x80002000 store:0x00000001 load:0x00000000
        1598000	      1596	80000298	bfe5	c.j	80000290	
        1599000	      1597	80000290	00002f17	auipc	x30,0x2	 x30=0x80002290
        1601000	      1599	80000294	d63f2823	sw	x3,-656(x30)	 x30:0x80002290  x3:0x00000001 PA:0x80002000 store:0x00000001 load:0x00000000
        1603000	      1601	80000298	bfe5	c.j	80000290	
        1604000	      1602	80000290	00002f17	auipc	x30,0x2	 x30=0x80002290
        1606000	      1604	80000294	d63f2823	sw	x3,-656(x30)	 x30:0x80002290  x3:0x00000001 PA:0x80002000 store:0x00000001 load:0x00000000
        1608000	      1606	80000298	bfe5	c.j	80000290	
        1609000	      1607	80000290	00002f17	auipc	x30,0x2	 x30=0x80002290
        1611000	      1609	80000294	d63f2823	sw	x3,-656(x30)	 x30:0x80002290  x3:0x00000001 PA:0x80002000 store:0x00000001 load:0x00000000
        1613000	      1611	80000298	bfe5	c.j	80000290	
        1614000	      1612	80000290	00002f17	auipc	x30,0x2	 x30=0x80002290
        1616000	      1614	80000294	d63f2823	sw	x3,-656(x30)	 x30:0x80002290  x3:0x00000001 PA:0x80002000 store:0x00000001 load:0x00000000
        1618000	      1616	80000298	bfe5	c.j	80000290	
        1619000	      1617	80000290	00002f17	auipc	x30,0x2	 x30=0x80002290
        1621000	      1619	80000294	d63f2823	sw	x3,-656(x30)	 x30:0x80002290  x3:0x00000001 PA:0x80002000 store:0x00000001 load:0x00000000
        1623000	      1621	80000298	bfe5	c.j	80000290	
        1624000	      1622	80000290	00002f17	auipc	x30,0x2	 x30=0x80002290
        1626000	      1624	80000294	d63f2823	sw	x3,-656(x30)	 x30:0x80002290  x3:0x00000001 PA:0x80002000 store:0x00000001 load:0x00000000
        1628000	      1626	80000298	bfe5	c.j	80000290	
        1629000	      1627	80000290	00002f17	auipc	x30,0x2	 x30=0x80002290
        1631000	      1629	80000294	d63f2823	sw	x3,-656(x30)	 x30:0x80002290  x3:0x00000001 PA:0x80002000 store:0x00000001 load:0x00000000
        1633000	      1631	80000298	bfe5	c.j	80000290	
        1634000	      1632	80000290	00002f17	auipc	x30,0x2	 x30=0x80002290
        1636000	      1634	80000294	d63f2823	sw	x3,-656(x30)	 x30:0x80002290  x3:0x00000001 PA:0x80002000 store:0x00000001 load:0x00000000
        1638000	      1636	80000298	bfe5	c.j	80000290	
        1639000	      1637	80000290	00002f17	auipc	x30,0x2	 x30=0x80002290
        1641000	      1639	80000294	d63f2823	sw	x3,-656(x30)	 x30:0x80002290  x3:0x00000001 PA:0x80002000 store:0x00000001 load:0x00000000
        1643000	      1641	80000298	bfe5	c.j	80000290	
        1644000	      1642	80000290	00002f17	auipc	x30,0x2	 x30=0x80002290
        1646000	      1644	80000294	d63f2823	sw	x3,-656(x30)	 x30:0x80002290  x3:0x00000001 PA:0x80002000 store:0x00000001 load:0x00000000
        1648000	      1646	80000298	bfe5	c.j	80000290	
        1649000	      1647	80000290	00002f17	auipc	x30,0x2	 x30=0x80002290
        1651000	      1649	80000294	d63f2823	sw	x3,-656(x30)	 x30:0x80002290  x3:0x00000001 PA:0x80002000 store:0x00000001 load:0x00000000
        1653000	      1651	80000298	bfe5	c.j	80000290	
        1654000	      1652	80000290	00002f17	auipc	x30,0x2	 x30=0x80002290
        1656000	      1654	80000294	d63f2823	sw	x3,-656(x30)	 x30:0x80002290  x3:0x00000001 PA:0x80002000 store:0x00000001 load:0x00000000
        1658000	      1656	80000298	bfe5	c.j	80000290	
        1659000	      1657	80000290	00002f17	auipc	x30,0x2	 x30=0x80002290
        1661000	      1659	80000294	d63f2823	sw	x3,-656(x30)	 x30:0x80002290  x3:0x00000001 PA:0x80002000 store:0x00000001 load:0x00000000
        1663000	      1661	80000298	bfe5	c.j	80000290	
        1664000	      1662	80000290	00002f17	auipc	x30,0x2	 x30=0x80002290
        1666000	      1664	80000294	d63f2823	sw	x3,-656(x30)	 x30:0x80002290  x3:0x00000001 PA:0x80002000 store:0x00000001 load:0x00000000
        1668000	      1666	80000298	bfe5	c.j	80000290	
        1669000	      1667	80000290	00002f17	auipc	x30,0x2	 x30=0x80002290
        1671000	      1669	80000294	d63f2823	sw	x3,-656(x30)	 x30:0x80002290  x3:0x00000001 PA:0x80002000 store:0x00000001 load:0x00000000
        1673000	      1671	80000298	bfe5	c.j	80000290	
        1674000	      1672	80000290	00002f17	auipc	x30,0x2	 x30=0x80002290
        1676000	      1674	80000294	d63f2823	sw	x3,-656(x30)	 x30:0x80002290  x3:0x00000001 PA:0x80002000 store:0x00000001 load:0x00000000
        1678000	      1676	80000298	bfe5	c.j	80000290	
        1679000	      1677	80000290	00002f17	auipc	x30,0x2	 x30=0x80002290
        1681000	      1679	80000294	d63f2823	sw	x3,-656(x30)	 x30:0x80002290  x3:0x00000001 PA:0x80002000 store:0x00000001 load:0x00000000
        1683000	      1681	80000298	bfe5	c.j	80000290	
        1684000	      1682	80000290	00002f17	auipc	x30,0x2	 x30=0x80002290
        1686000	      1684	80000294	d63f2823	sw	x3,-656(x30)	 x30:0x80002290  x3:0x00000001 PA:0x80002000 store:0x00000001 load:0x00000000
        1688000	      1686	80000298	bfe5	c.j	80000290	
        1689000	      1687	80000290	00002f17	auipc	x30,0x2	 x30=0x80002290
        1691000	      1689	80000294	d63f2823	sw	x3,-656(x30)	 x30:0x80002290  x3:0x00000001 PA:0x80002000 store:0x00000001 load:0x00000000
        1693000	      1691	80000298	bfe5	c.j	80000290	
        1694000	      1692	80000290	00002f17	auipc	x30,0x2	 x30=0x80002290
        1696000	      1694	80000294	d63f2823	sw	x3,-656(x30)	 x30:0x80002290  x3:0x00000001 PA:0x80002000 store:0x00000001 load:0x00000000
        1698000	      1696	80000298	bfe5	c.j	80000290	
        1699000	      1697	80000290	00002f17	auipc	x30,0x2	 x30=0x80002290
        1701000	      1699	80000294	d63f2823	sw	x3,-656(x30)	 x30:0x80002290  x3:0x00000001 PA:0x80002000 store:0x00000001 load:0x00000000
        1703000	      1701	80000298	bfe5	c.j	80000290	
        1704000	      1702	80000290	00002f17	auipc	x30,0x2	 x30=0x80002290
        1706000	      1704	80000294	d63f2823	sw	x3,-656(x30)	 x30:0x80002290  x3:0x00000001 PA:0x80002000 store:0x00000001 load:0x00000000
        1708000	      1706	80000298	bfe5	c.j	80000290	
        1709000	      1707	80000290	00002f17	auipc	x30,0x2	 x30=0x80002290
        1711000	      1709	80000294	d63f2823	sw	x3,-656(x30)	 x30:0x80002290  x3:0x00000001 PA:0x80002000 store:0x00000001 load:0x00000000
        1713000	      1711	80000298	bfe5	c.j	80000290	
        1714000	      1712	80000290	00002f17	auipc	x30,0x2	 x30=0x80002290
        1716000	      1714	80000294	d63f2823	sw	x3,-656(x30)	 x30:0x80002290  x3:0x00000001 PA:0x80002000 store:0x00000001 load:0x00000000
        1718000	      1716	80000298	bfe5	c.j	80000290	
        1719000	      1717	80000290	00002f17	auipc	x30,0x2	 x30=0x80002290
        1721000	      1719	80000294	d63f2823	sw	x3,-656(x30)	 x30:0x80002290  x3:0x00000001 PA:0x80002000 store:0x00000001 load:0x00000000
        1723000	      1721	80000298	bfe5	c.j	80000290	
        1724000	      1722	80000290	00002f17	auipc	x30,0x2	 x30=0x80002290
        1726000	      1724	80000294	d63f2823	sw	x3,-656(x30)	 x30:0x80002290  x3:0x00000001 PA:0x80002000 store:0x00000001 load:0x00000000
        1728000	      1726	80000298	bfe5	c.j	80000290	
        1729000	      1727	80000290	00002f17	auipc	x30,0x2	 x30=0x80002290
        1731000	      1729	80000294	d63f2823	sw	x3,-656(x30)	 x30:0x80002290  x3:0x00000001 PA:0x80002000 store:0x00000001 load:0x00000000
        1733000	      1731	80000298	bfe5	c.j	80000290	
        1734000	      1732	80000290	00002f17	auipc	x30,0x2	 x30=0x80002290
        1736000	      1734	80000294	d63f2823	sw	x3,-656(x30)	 x30:0x80002290  x3:0x00000001 PA:0x80002000 store:0x00000001 load:0x00000000
        1738000	      1736	80000298	bfe5	c.j	80000290	
        1739000	      1737	80000290	00002f17	auipc	x30,0x2	 x30=0x80002290
        1741000	      1739	80000294	d63f2823	sw	x3,-656(x30)	 x30:0x80002290  x3:0x00000001 PA:0x80002000 store:0x00000001 load:0x00000000
        1743000	      1741	80000298	bfe5	c.j	80000290	
        1744000	      1742	80000290	00002f17	auipc	x30,0x2	 x30=0x80002290
        1746000	      1744	80000294	d63f2823	sw	x3,-656(x30)	 x30:0x80002290  x3:0x00000001 PA:0x80002000 store:0x00000001 load:0x00000000
        1748000	      1746	80000298	bfe5	c.j	80000290	
        1749000	      1747	80000290	00002f17	auipc	x30,0x2	 x30=0x80002290
        1751000	      1749	80000294	d63f2823	sw	x3,-656(x30)	 x30:0x80002290  x3:0x00000001 PA:0x80002000 store:0x00000001 load:0x00000000
        1753000	      1751	80000298	bfe5	c.j	80000290	
        1754000	      1752	80000290	00002f17	auipc	x30,0x2	 x30=0x80002290
        1756000	      1754	80000294	d63f2823	sw	x3,-656(x30)	 x30:0x80002290  x3:0x00000001 PA:0x80002000 store:0x00000001 load:0x00000000
        1758000	      1756	80000298	bfe5	c.j	80000290	
        1759000	      1757	80000290	00002f17	auipc	x30,0x2	 x30=0x80002290
        1761000	      1759	80000294	d63f2823	sw	x3,-656(x30)	 x30:0x80002290  x3:0x00000001 PA:0x80002000 store:0x00000001 load:0x00000000
        1763000	      1761	80000298	bfe5	c.j	80000290	
        1764000	      1762	80000290	00002f17	auipc	x30,0x2	 x30=0x80002290
        1766000	      1764	80000294	d63f2823	sw	x3,-656(x30)	 x30:0x80002290  x3:0x00000001 PA:0x80002000 store:0x00000001 load:0x00000000
        1768000	      1766	80000298	bfe5	c.j	80000290	
        1769000	      1767	80000290	00002f17	auipc	x30,0x2	 x30=0x80002290
        1771000	      1769	80000294	d63f2823	sw	x3,-656(x30)	 x30:0x80002290  x3:0x00000001 PA:0x80002000 store:0x00000001 load:0x00000000
        1773000	      1771	80000298	bfe5	c.j	80000290	
        1774000	      1772	80000290	00002f17	auipc	x30,0x2	 x30=0x80002290
        1776000	      1774	80000294	d63f2823	sw	x3,-656(x30)	 x30:0x80002290  x3:0x00000001 PA:0x80002000 store:0x00000001 load:0x00000000
        1778000	      1776	80000298	bfe5	c.j	80000290	
        1779000	      1777	80000290	00002f17	auipc	x30,0x2	 x30=0x80002290
        1781000	      1779	80000294	d63f2823	sw	x3,-656(x30)	 x30:0x80002290  x3:0x00000001 PA:0x80002000 store:0x00000001 load:0x00000000
        1783000	      1781	80000298	bfe5	c.j	80000290	
        1784000	      1782	80000290	00002f17	auipc	x30,0x2	 x30=0x80002290
        1786000	      1784	80000294	d63f2823	sw	x3,-656(x30)	 x30:0x80002290  x3:0x00000001 PA:0x80002000 store:0x00000001 load:0x00000000
        1788000	      1786	80000298	bfe5	c.j	80000290	
        1789000	      1787	80000290	00002f17	auipc	x30,0x2	 x30=0x80002290
        1791000	      1789	80000294	d63f2823	sw	x3,-656(x30)	 x30:0x80002290  x3:0x00000001 PA:0x80002000 store:0x00000001 load:0x00000000
        1793000	      1791	80000298	bfe5	c.j	80000290	
        1794000	      1792	80000290	00002f17	auipc	x30,0x2	 x30=0x80002290
        1796000	      1794	80000294	d63f2823	sw	x3,-656(x30)	 x30:0x80002290  x3:0x00000001 PA:0x80002000 store:0x00000001 load:0x00000000
        1798000	      1796	80000298	bfe5	c.j	80000290	
        1799000	      1797	80000290	00002f17	auipc	x30,0x2	 x30=0x80002290
        1801000	      1799	80000294	d63f2823	sw	x3,-656(x30)	 x30:0x80002290  x3:0x00000001 PA:0x80002000 store:0x00000001 load:0x00000000
        1803000	      1801	80000298	bfe5	c.j	80000290	
        1804000	      1802	80000290	00002f17	auipc	x30,0x2	 x30=0x80002290
        1806000	      1804	80000294	d63f2823	sw	x3,-656(x30)	 x30:0x80002290  x3:0x00000001 PA:0x80002000 store:0x00000001 load:0x00000000
        1808000	      1806	80000298	bfe5	c.j	80000290	
        1809000	      1807	80000290	00002f17	auipc	x30,0x2	 x30=0x80002290
        1811000	      1809	80000294	d63f2823	sw	x3,-656(x30)	 x30:0x80002290  x3:0x00000001 PA:0x80002000 store:0x00000001 load:0x00000000
        1813000	      1811	80000298	bfe5	c.j	80000290	
        1814000	      1812	80000290	00002f17	auipc	x30,0x2	 x30=0x80002290
        1816000	      1814	80000294	d63f2823	sw	x3,-656(x30)	 x30:0x80002290  x3:0x00000001 PA:0x80002000 store:0x00000001 load:0x00000000
        1818000	      1816	80000298	bfe5	c.j	80000290	
        1819000	      1817	80000290	00002f17	auipc	x30,0x2	 x30=0x80002290
        1821000	      1819	80000294	d63f2823	sw	x3,-656(x30)	 x30:0x80002290  x3:0x00000001 PA:0x80002000 store:0x00000001 load:0x00000000
        1823000	      1821	80000298	bfe5	c.j	80000290	
        1824000	      1822	80000290	00002f17	auipc	x30,0x2	 x30=0x80002290
        1826000	      1824	80000294	d63f2823	sw	x3,-656(x30)	 x30:0x80002290  x3:0x00000001 PA:0x80002000 store:0x00000001 load:0x00000000
        1828000	      1826	80000298	bfe5	c.j	80000290	
        1829000	      1827	80000290	00002f17	auipc	x30,0x2	 x30=0x80002290
        1831000	      1829	80000294	d63f2823	sw	x3,-656(x30)	 x30:0x80002290  x3:0x00000001 PA:0x80002000 store:0x00000001 load:0x00000000
        1833000	      1831	80000298	bfe5	c.j	80000290	
        1834000	      1832	80000290	00002f17	auipc	x30,0x2	 x30=0x80002290
        1836000	      1834	80000294	d63f2823	sw	x3,-656(x30)	 x30:0x80002290  x3:0x00000001 PA:0x80002000 store:0x00000001 load:0x00000000
        1838000	      1836	80000298	bfe5	c.j	80000290	
        1839000	      1837	80000290	00002f17	auipc	x30,0x2	 x30=0x80002290
        1841000	      1839	80000294	d63f2823	sw	x3,-656(x30)	 x30:0x80002290  x3:0x00000001 PA:0x80002000 store:0x00000001 load:0x00000000
        1843000	      1841	80000298	bfe5	c.j	80000290	
        1844000	      1842	80000290	00002f17	auipc	x30,0x2	 x30=0x80002290
        1846000	      1844	80000294	d63f2823	sw	x3,-656(x30)	 x30:0x80002290  x3:0x00000001 PA:0x80002000 store:0x00000001 load:0x00000000
        1848000	      1846	80000298	bfe5	c.j	80000290	
        1849000	      1847	80000290	00002f17	auipc	x30,0x2	 x30=0x80002290
        1851000	      1849	80000294	d63f2823	sw	x3,-656(x30)	 x30:0x80002290  x3:0x00000001 PA:0x80002000 store:0x00000001 load:0x00000000
        1853000	      1851	80000298	bfe5	c.j	80000290	
        1854000	      1852	80000290	00002f17	auipc	x30,0x2	 x30=0x80002290
        1856000	      1854	80000294	d63f2823	sw	x3,-656(x30)	 x30:0x80002290  x3:0x00000001 PA:0x80002000 store:0x00000001 load:0x00000000
        1858000	      1856	80000298	bfe5	c.j	80000290	
        1859000	      1857	80000290	00002f17	auipc	x30,0x2	 x30=0x80002290
        1861000	      1859	80000294	d63f2823	sw	x3,-656(x30)	 x30:0x80002290  x3:0x00000001 PA:0x80002000 store:0x00000001 load:0x00000000
        1863000	      1861	80000298	bfe5	c.j	80000290	
        1864000	      1862	80000290	00002f17	auipc	x30,0x2	 x30=0x80002290
        1866000	      1864	80000294	d63f2823	sw	x3,-656(x30)	 x30:0x80002290  x3:0x00000001 PA:0x80002000 store:0x00000001 load:0x00000000
        1868000	      1866	80000298	bfe5	c.j	80000290	
        1869000	      1867	80000290	00002f17	auipc	x30,0x2	 x30=0x80002290
        1871000	      1869	80000294	d63f2823	sw	x3,-656(x30)	 x30:0x80002290  x3:0x00000001 PA:0x80002000 store:0x00000001 load:0x00000000
        1873000	      1871	80000298	bfe5	c.j	80000290	
        1874000	      1872	80000290	00002f17	auipc	x30,0x2	 x30=0x80002290
        1876000	      1874	80000294	d63f2823	sw	x3,-656(x30)	 x30:0x80002290  x3:0x00000001 PA:0x80002000 store:0x00000001 load:0x00000000
        1878000	      1876	80000298	bfe5	c.j	80000290	
        1879000	      1877	80000290	00002f17	auipc	x30,0x2	 x30=0x80002290
        1881000	      1879	80000294	d63f2823	sw	x3,-656(x30)	 x30:0x80002290  x3:0x00000001 PA:0x80002000 store:0x00000001 load:0x00000000
        1883000	      1881	80000298	bfe5	c.j	80000290	
        1884000	      1882	80000290	00002f17	auipc	x30,0x2	 x30=0x80002290
        1886000	      1884	80000294	d63f2823	sw	x3,-656(x30)	 x30:0x80002290  x3:0x00000001 PA:0x80002000 store:0x00000001 load:0x00000000
        1888000	      1886	80000298	bfe5	c.j	80000290	
        1889000	      1887	80000290	00002f17	auipc	x30,0x2	 x30=0x80002290
        1891000	      1889	80000294	d63f2823	sw	x3,-656(x30)	 x30:0x80002290  x3:0x00000001 PA:0x80002000 store:0x00000001 load:0x00000000
        1893000	      1891	80000298	bfe5	c.j	80000290	
        1894000	      1892	80000290	00002f17	auipc	x30,0x2	 x30=0x80002290
        1896000	      1894	80000294	d63f2823	sw	x3,-656(x30)	 x30:0x80002290  x3:0x00000001 PA:0x80002000 store:0x00000001 load:0x00000000
        1898000	      1896	80000298	bfe5	c.j	80000290	
        1899000	      1897	80000290	00002f17	auipc	x30,0x2	 x30=0x80002290
        1901000	      1899	80000294	d63f2823	sw	x3,-656(x30)	 x30:0x80002290  x3:0x00000001 PA:0x80002000 store:0x00000001 load:0x00000000
        1903000	      1901	80000298	bfe5	c.j	80000290	
        1904000	      1902	80000290	00002f17	auipc	x30,0x2	 x30=0x80002290
        1906000	      1904	80000294	d63f2823	sw	x3,-656(x30)	 x30:0x80002290  x3:0x00000001 PA:0x80002000 store:0x00000001 load:0x00000000
        1908000	      1906	80000298	bfe5	c.j	80000290	
        1909000	      1907	80000290	00002f17	auipc	x30,0x2	 x30=0x80002290
        1911000	      1909	80000294	d63f2823	sw	x3,-656(x30)	 x30:0x80002290  x3:0x00000001 PA:0x80002000 store:0x00000001 load:0x00000000
        1913000	      1911	80000298	bfe5	c.j	80000290	
        1914000	      1912	80000290	00002f17	auipc	x30,0x2	 x30=0x80002290
        1916000	      1914	80000294	d63f2823	sw	x3,-656(x30)	 x30:0x80002290  x3:0x00000001 PA:0x80002000 store:0x00000001 load:0x00000000
        1918000	      1916	80000298	bfe5	c.j	80000290	
        1919000	      1917	80000290	00002f17	auipc	x30,0x2	 x30=0x80002290
        1921000	      1919	80000294	d63f2823	sw	x3,-656(x30)	 x30:0x80002290  x3:0x00000001 PA:0x80002000 store:0x00000001 load:0x00000000
        1923000	      1921	80000298	bfe5	c.j	80000290	
        1924000	      1922	80000290	00002f17	auipc	x30,0x2	 x30=0x80002290
        1926000	      1924	80000294	d63f2823	sw	x3,-656(x30)	 x30:0x80002290  x3:0x00000001 PA:0x80002000 store:0x00000001 load:0x00000000
        1928000	      1926	80000298	bfe5	c.j	80000290	
        1929000	      1927	80000290	00002f17	auipc	x30,0x2	 x30=0x80002290
        1931000	      1929	80000294	d63f2823	sw	x3,-656(x30)	 x30:0x80002290  x3:0x00000001 PA:0x80002000 store:0x00000001 load:0x00000000
        1933000	      1931	80000298	bfe5	c.j	80000290	
        1934000	      1932	80000290	00002f17	auipc	x30,0x2	 x30=0x80002290
        1936000	      1934	80000294	d63f2823	sw	x3,-656(x30)	 x30:0x80002290  x3:0x00000001 PA:0x80002000 store:0x00000001 load:0x00000000
        1938000	      1936	80000298	bfe5	c.j	80000290	
        1939000	      1937	80000290	00002f17	auipc	x30,0x2	 x30=0x80002290
        1941000	      1939	80000294	d63f2823	sw	x3,-656(x30)	 x30:0x80002290  x3:0x00000001 PA:0x80002000 store:0x00000001 load:0x00000000
        1943000	      1941	80000298	bfe5	c.j	80000290	
        1944000	      1942	80000290	00002f17	auipc	x30,0x2	 x30=0x80002290
        1946000	      1944	80000294	d63f2823	sw	x3,-656(x30)	 x30:0x80002290  x3:0x00000001 PA:0x80002000 store:0x00000001 load:0x00000000
        1948000	      1946	80000298	bfe5	c.j	80000290	
        1949000	      1947	80000290	00002f17	auipc	x30,0x2	 x30=0x80002290
        1951000	      1949	80000294	d63f2823	sw	x3,-656(x30)	 x30:0x80002290  x3:0x00000001 PA:0x80002000 store:0x00000001 load:0x00000000
        1953000	      1951	80000298	bfe5	c.j	80000290	
        1954000	      1952	80000290	00002f17	auipc	x30,0x2	 x30=0x80002290
        1956000	      1954	80000294	d63f2823	sw	x3,-656(x30)	 x30:0x80002290  x3:0x00000001 PA:0x80002000 store:0x00000001 load:0x00000000
        1958000	      1956	80000298	bfe5	c.j	80000290	
        1959000	      1957	80000290	00002f17	auipc	x30,0x2	 x30=0x80002290
        1961000	      1959	80000294	d63f2823	sw	x3,-656(x30)	 x30:0x80002290  x3:0x00000001 PA:0x80002000 store:0x00000001 load:0x00000000
        1963000	      1961	80000298	bfe5	c.j	80000290	
        1964000	      1962	80000290	00002f17	auipc	x30,0x2	 x30=0x80002290
        1966000	      1964	80000294	d63f2823	sw	x3,-656(x30)	 x30:0x80002290  x3:0x00000001 PA:0x80002000 store:0x00000001 load:0x00000000
        1968000	      1966	80000298	bfe5	c.j	80000290	
        1969000	      1967	80000290	00002f17	auipc	x30,0x2	 x30=0x80002290
        1971000	      1969	80000294	d63f2823	sw	x3,-656(x30)	 x30:0x80002290  x3:0x00000001 PA:0x80002000 store:0x00000001 load:0x00000000
        1973000	      1971	80000298	bfe5	c.j	80000290	
        1974000	      1972	80000290	00002f17	auipc	x30,0x2	 x30=0x80002290
        1976000	      1974	80000294	d63f2823	sw	x3,-656(x30)	 x30:0x80002290  x3:0x00000001 PA:0x80002000 store:0x00000001 load:0x00000000
        1978000	      1976	80000298	bfe5	c.j	80000290	
        1979000	      1977	80000290	00002f17	auipc	x30,0x2	 x30=0x80002290
        1981000	      1979	80000294	d63f2823	sw	x3,-656(x30)	 x30:0x80002290  x3:0x00000001 PA:0x80002000 store:0x00000001 load:0x00000000
        1983000	      1981	80000298	bfe5	c.j	80000290	
        1984000	      1982	80000290	00002f17	auipc	x30,0x2	 x30=0x80002290
        1986000	      1984	80000294	d63f2823	sw	x3,-656(x30)	 x30:0x80002290  x3:0x00000001 PA:0x80002000 store:0x00000001 load:0x00000000
        1988000	      1986	80000298	bfe5	c.j	80000290	
        1989000	      1987	80000290	00002f17	auipc	x30,0x2	 x30=0x80002290
        1991000	      1989	80000294	d63f2823	sw	x3,-656(x30)	 x30:0x80002290  x3:0x00000001 PA:0x80002000 store:0x00000001 load:0x00000000
        1993000	      1991	80000298	bfe5	c.j	80000290	
        1994000	      1992	80000290	00002f17	auipc	x30,0x2	 x30=0x80002290
        1996000	      1994	80000294	d63f2823	sw	x3,-656(x30)	 x30:0x80002290  x3:0x00000001 PA:0x80002000 store:0x00000001 load:0x00000000
        1998000	      1996	80000298	bfe5	c.j	80000290	
        1999000	      1997	80000290	00002f17	auipc	x30,0x2	 x30=0x80002290
        2001000	      1999	80000294	d63f2823	sw	x3,-656(x30)	 x30:0x80002290  x3:0x00000001 PA:0x80002000 store:0x00000001 load:0x00000000
        2003000	      2001	80000298	bfe5	c.j	80000290	
        2004000	      2002	80000290	00002f17	auipc	x30,0x2	 x30=0x80002290
        2006000	      2004	80000294	d63f2823	sw	x3,-656(x30)	 x30:0x80002290  x3:0x00000001 PA:0x80002000 store:0x00000001 load:0x00000000
        2008000	      2006	80000298	bfe5	c.j	80000290	
        2009000	      2007	80000290	00002f17	auipc	x30,0x2	 x30=0x80002290
        2011000	      2009	80000294	d63f2823	sw	x3,-656(x30)	 x30:0x80002290  x3:0x00000001 PA:0x80002000 store:0x00000001 load:0x00000000
        2013000	      2011	80000298	bfe5	c.j	80000290	
        2014000	      2012	80000290	00002f17	auipc	x30,0x2	 x30=0x80002290
        2016000	      2014	80000294	d63f2823	sw	x3,-656(x30)	 x30:0x80002290  x3:0x00000001 PA:0x80002000 store:0x00000001 load:0x00000000
        2018000	      2016	80000298	bfe5	c.j	80000290	
        2019000	      2017	80000290	00002f17	auipc	x30,0x2	 x30=0x80002290
        2021000	      2019	80000294	d63f2823	sw	x3,-656(x30)	 x30:0x80002290  x3:0x00000001 PA:0x80002000 store:0x00000001 load:0x00000000
        2023000	      2021	80000298	bfe5	c.j	80000290	
        2024000	      2022	80000290	00002f17	auipc	x30,0x2	 x30=0x80002290
        2026000	      2024	80000294	d63f2823	sw	x3,-656(x30)	 x30:0x80002290  x3:0x00000001 PA:0x80002000 store:0x00000001 load:0x00000000
        2028000	      2026	80000298	bfe5	c.j	80000290	
        2029000	      2027	80000290	00002f17	auipc	x30,0x2	 x30=0x80002290
        2031000	      2029	80000294	d63f2823	sw	x3,-656(x30)	 x30:0x80002290  x3:0x00000001 PA:0x80002000 store:0x00000001 load:0x00000000
        2033000	      2031	80000298	bfe5	c.j	80000290	
        2034000	      2032	80000290	00002f17	auipc	x30,0x2	 x30=0x80002290
        2036000	      2034	80000294	d63f2823	sw	x3,-656(x30)	 x30:0x80002290  x3:0x00000001 PA:0x80002000 store:0x00000001 load:0x00000000
        2038000	      2036	80000298	bfe5	c.j	80000290	
        2039000	      2037	80000290	00002f17	auipc	x30,0x2	 x30=0x80002290
        2041000	      2039	80000294	d63f2823	sw	x3,-656(x30)	 x30:0x80002290  x3:0x00000001 PA:0x80002000 store:0x00000001 load:0x00000000
        2043000	      2041	80000298	bfe5	c.j	80000290	
        2044000	      2042	80000290	00002f17	auipc	x30,0x2	 x30=0x80002290
        2046000	      2044	80000294	d63f2823	sw	x3,-656(x30)	 x30:0x80002290  x3:0x00000001 PA:0x80002000 store:0x00000001 load:0x00000000
        2048000	      2046	80000298	bfe5	c.j	80000290	
        2049000	      2047	80000290	00002f17	auipc	x30,0x2	 x30=0x80002290
        2051000	      2049	80000294	d63f2823	sw	x3,-656(x30)	 x30:0x80002290  x3:0x00000001 PA:0x80002000 store:0x00000001 load:0x00000000
        2053000	      2051	80000298	bfe5	c.j	80000290	
        2054000	      2052	80000290	00002f17	auipc	x30,0x2	 x30=0x80002290
        2056000	      2054	80000294	d63f2823	sw	x3,-656(x30)	 x30:0x80002290  x3:0x00000001 PA:0x80002000 store:0x00000001 load:0x00000000
        2058000	      2056	80000298	bfe5	c.j	80000290	
        2059000	      2057	80000290	00002f17	auipc	x30,0x2	 x30=0x80002290
        2061000	      2059	80000294	d63f2823	sw	x3,-656(x30)	 x30:0x80002290  x3:0x00000001 PA:0x80002000 store:0x00000001 load:0x00000000
        2063000	      2061	80000298	bfe5	c.j	80000290	
        2064000	      2062	80000290	00002f17	auipc	x30,0x2	 x30=0x80002290
        2066000	      2064	80000294	d63f2823	sw	x3,-656(x30)	 x30:0x80002290  x3:0x00000001 PA:0x80002000 store:0x00000001 load:0x00000000
        2068000	      2066	80000298	bfe5	c.j	80000290	
        2069000	      2067	80000290	00002f17	auipc	x30,0x2	 x30=0x80002290
        2071000	      2069	80000294	d63f2823	sw	x3,-656(x30)	 x30:0x80002290  x3:0x00000001 PA:0x80002000 store:0x00000001 load:0x00000000
        2073000	      2071	80000298	bfe5	c.j	80000290	
        2074000	      2072	80000290	00002f17	auipc	x30,0x2	 x30=0x80002290
        2076000	      2074	80000294	d63f2823	sw	x3,-656(x30)	 x30:0x80002290  x3:0x00000001 PA:0x80002000 store:0x00000001 load:0x00000000
        2078000	      2076	80000298	bfe5	c.j	80000290	
        2079000	      2077	80000290	00002f17	auipc	x30,0x2	 x30=0x80002290
        2081000	      2079	80000294	d63f2823	sw	x3,-656(x30)	 x30:0x80002290  x3:0x00000001 PA:0x80002000 store:0x00000001 load:0x00000000
        2083000	      2081	80000298	bfe5	c.j	80000290	
        2084000	      2082	80000290	00002f17	auipc	x30,0x2	 x30=0x80002290
        2086000	      2084	80000294	d63f2823	sw	x3,-656(x30)	 x30:0x80002290  x3:0x00000001 PA:0x80002000 store:0x00000001 load:0x00000000
        2088000	      2086	80000298	bfe5	c.j	80000290	
        2089000	      2087	80000290	00002f17	auipc	x30,0x2	 x30=0x80002290
        2091000	      2089	80000294	d63f2823	sw	x3,-656(x30)	 x30:0x80002290  x3:0x00000001 PA:0x80002000 store:0x00000001 load:0x00000000
        2093000	      2091	80000298	bfe5	c.j	80000290	
        2094000	      2092	80000290	00002f17	auipc	x30,0x2	 x30=0x80002290
        2096000	      2094	80000294	d63f2823	sw	x3,-656(x30)	 x30:0x80002290  x3:0x00000001 PA:0x80002000 store:0x00000001 load:0x00000000
        2098000	      2096	80000298	bfe5	c.j	80000290	
        2099000	      2097	80000290	00002f17	auipc	x30,0x2	 x30=0x80002290
        2101000	      2099	80000294	d63f2823	sw	x3,-656(x30)	 x30:0x80002290  x3:0x00000001 PA:0x80002000 store:0x00000001 load:0x00000000
        2103000	      2101	80000298	bfe5	c.j	80000290	
        2104000	      2102	80000290	00002f17	auipc	x30,0x2	 x30=0x80002290
        2106000	      2104	80000294	d63f2823	sw	x3,-656(x30)	 x30:0x80002290  x3:0x00000001 PA:0x80002000 store:0x00000001 load:0x00000000
        2108000	      2106	80000298	bfe5	c.j	80000290	
        2109000	      2107	80000290	00002f17	auipc	x30,0x2	 x30=0x80002290
        2111000	      2109	80000294	d63f2823	sw	x3,-656(x30)	 x30:0x80002290  x3:0x00000001 PA:0x80002000 store:0x00000001 load:0x00000000
        2113000	      2111	80000298	bfe5	c.j	80000290	
        2114000	      2112	80000290	00002f17	auipc	x30,0x2	 x30=0x80002290
        2116000	      2114	80000294	d63f2823	sw	x3,-656(x30)	 x30:0x80002290  x3:0x00000001 PA:0x80002000 store:0x00000001 load:0x00000000
        2118000	      2116	80000298	bfe5	c.j	80000290	
        2119000	      2117	80000290	00002f17	auipc	x30,0x2	 x30=0x80002290
        2121000	      2119	80000294	d63f2823	sw	x3,-656(x30)	 x30:0x80002290  x3:0x00000001 PA:0x80002000 store:0x00000001 load:0x00000000
        2123000	      2121	80000298	bfe5	c.j	80000290	
        2124000	      2122	80000290	00002f17	auipc	x30,0x2	 x30=0x80002290
        2126000	      2124	80000294	d63f2823	sw	x3,-656(x30)	 x30:0x80002290  x3:0x00000001 PA:0x80002000 store:0x00000001 load:0x00000000
        2128000	      2126	80000298	bfe5	c.j	80000290	
        2129000	      2127	80000290	00002f17	auipc	x30,0x2	 x30=0x80002290
        2131000	      2129	80000294	d63f2823	sw	x3,-656(x30)	 x30:0x80002290  x3:0x00000001 PA:0x80002000 store:0x00000001 load:0x00000000
        2133000	      2131	80000298	bfe5	c.j	80000290	
        2134000	      2132	80000290	00002f17	auipc	x30,0x2	 x30=0x80002290
        2136000	      2134	80000294	d63f2823	sw	x3,-656(x30)	 x30:0x80002290  x3:0x00000001 PA:0x80002000 store:0x00000001 load:0x00000000
        2138000	      2136	80000298	bfe5	c.j	80000290	
        2139000	      2137	80000290	00002f17	auipc	x30,0x2	 x30=0x80002290
        2141000	      2139	80000294	d63f2823	sw	x3,-656(x30)	 x30:0x80002290  x3:0x00000001 PA:0x80002000 store:0x00000001 load:0x00000000
        2143000	      2141	80000298	bfe5	c.j	80000290	
        2144000	      2142	80000290	00002f17	auipc	x30,0x2	 x30=0x80002290
        2146000	      2144	80000294	d63f2823	sw	x3,-656(x30)	 x30:0x80002290  x3:0x00000001 PA:0x80002000 store:0x00000001 load:0x00000000
        2148000	      2146	80000298	bfe5	c.j	80000290	
        2149000	      2147	80000290	00002f17	auipc	x30,0x2	 x30=0x80002290
        2151000	      2149	80000294	d63f2823	sw	x3,-656(x30)	 x30:0x80002290  x3:0x00000001 PA:0x80002000 store:0x00000001 load:0x00000000
        2153000	      2151	80000298	bfe5	c.j	80000290	
        2154000	      2152	80000290	00002f17	auipc	x30,0x2	 x30=0x80002290
        2156000	      2154	80000294	d63f2823	sw	x3,-656(x30)	 x30:0x80002290  x3:0x00000001 PA:0x80002000 store:0x00000001 load:0x00000000
        2158000	      2156	80000298	bfe5	c.j	80000290	
        2159000	      2157	80000290	00002f17	auipc	x30,0x2	 x30=0x80002290
        2161000	      2159	80000294	d63f2823	sw	x3,-656(x30)	 x30:0x80002290  x3:0x00000001 PA:0x80002000 store:0x00000001 load:0x00000000
        2163000	      2161	80000298	bfe5	c.j	80000290	
        2164000	      2162	80000290	00002f17	auipc	x30,0x2	 x30=0x80002290
        2166000	      2164	80000294	d63f2823	sw	x3,-656(x30)	 x30:0x80002290  x3:0x00000001 PA:0x80002000 store:0x00000001 load:0x00000000
        2168000	      2166	80000298	bfe5	c.j	80000290	
        2169000	      2167	80000290	00002f17	auipc	x30,0x2	 x30=0x80002290
        2171000	      2169	80000294	d63f2823	sw	x3,-656(x30)	 x30:0x80002290  x3:0x00000001 PA:0x80002000 store:0x00000001 load:0x00000000
        2173000	      2171	80000298	bfe5	c.j	80000290	
        2174000	      2172	80000290	00002f17	auipc	x30,0x2	 x30=0x80002290
        2176000	      2174	80000294	d63f2823	sw	x3,-656(x30)	 x30:0x80002290  x3:0x00000001 PA:0x80002000 store:0x00000001 load:0x00000000
        2178000	      2176	80000298	bfe5	c.j	80000290	
        2179000	      2177	80000290	00002f17	auipc	x30,0x2	 x30=0x80002290
        2181000	      2179	80000294	d63f2823	sw	x3,-656(x30)	 x30:0x80002290  x3:0x00000001 PA:0x80002000 store:0x00000001 load:0x00000000
        2183000	      2181	80000298	bfe5	c.j	80000290	
        2184000	      2182	80000290	00002f17	auipc	x30,0x2	 x30=0x80002290
        2186000	      2184	80000294	d63f2823	sw	x3,-656(x30)	 x30:0x80002290  x3:0x00000001 PA:0x80002000 store:0x00000001 load:0x00000000
        2188000	      2186	80000298	bfe5	c.j	80000290	
        2189000	      2187	80000290	00002f17	auipc	x30,0x2	 x30=0x80002290
        2191000	      2189	80000294	d63f2823	sw	x3,-656(x30)	 x30:0x80002290  x3:0x00000001 PA:0x80002000 store:0x00000001 load:0x00000000
        2193000	      2191	80000298	bfe5	c.j	80000290	
        2194000	      2192	80000290	00002f17	auipc	x30,0x2	 x30=0x80002290
        2196000	      2194	80000294	d63f2823	sw	x3,-656(x30)	 x30:0x80002290  x3:0x00000001 PA:0x80002000 store:0x00000001 load:0x00000000
        2198000	      2196	80000298	bfe5	c.j	80000290	
        2199000	      2197	80000290	00002f17	auipc	x30,0x2	 x30=0x80002290
        2201000	      2199	80000294	d63f2823	sw	x3,-656(x30)	 x30:0x80002290  x3:0x00000001 PA:0x80002000 store:0x00000001 load:0x00000000
        2203000	      2201	80000298	bfe5	c.j	80000290	
        2204000	      2202	80000290	00002f17	auipc	x30,0x2	 x30=0x80002290
        2206000	      2204	80000294	d63f2823	sw	x3,-656(x30)	 x30:0x80002290  x3:0x00000001 PA:0x80002000 store:0x00000001 load:0x00000000
        2208000	      2206	80000298	bfe5	c.j	80000290	
        2209000	      2207	80000290	00002f17	auipc	x30,0x2	 x30=0x80002290
        2211000	      2209	80000294	d63f2823	sw	x3,-656(x30)	 x30:0x80002290  x3:0x00000001 PA:0x80002000 store:0x00000001 load:0x00000000
        2213000	      2211	80000298	bfe5	c.j	80000290	
        2214000	      2212	80000290	00002f17	auipc	x30,0x2	 x30=0x80002290
        2216000	      2214	80000294	d63f2823	sw	x3,-656(x30)	 x30:0x80002290  x3:0x00000001 PA:0x80002000 store:0x00000001 load:0x00000000
        2218000	      2216	80000298	bfe5	c.j	80000290	
        2219000	      2217	80000290	00002f17	auipc	x30,0x2	 x30=0x80002290
        2221000	      2219	80000294	d63f2823	sw	x3,-656(x30)	 x30:0x80002290  x3:0x00000001 PA:0x80002000 store:0x00000001 load:0x00000000
        2223000	      2221	80000298	bfe5	c.j	80000290	
        2224000	      2222	80000290	00002f17	auipc	x30,0x2	 x30=0x80002290
        2226000	      2224	80000294	d63f2823	sw	x3,-656(x30)	 x30:0x80002290  x3:0x00000001 PA:0x80002000 store:0x00000001 load:0x00000000
        2228000	      2226	80000298	bfe5	c.j	80000290	
        2229000	      2227	80000290	00002f17	auipc	x30,0x2	 x30=0x80002290
        2231000	      2229	80000294	d63f2823	sw	x3,-656(x30)	 x30:0x80002290  x3:0x00000001 PA:0x80002000 store:0x00000001 load:0x00000000
        2233000	      2231	80000298	bfe5	c.j	80000290	
        2234000	      2232	80000290	00002f17	auipc	x30,0x2	 x30=0x80002290
        2236000	      2234	80000294	d63f2823	sw	x3,-656(x30)	 x30:0x80002290  x3:0x00000001 PA:0x80002000 store:0x00000001 load:0x00000000
        2238000	      2236	80000298	bfe5	c.j	80000290	
        2239000	      2237	80000290	00002f17	auipc	x30,0x2	 x30=0x80002290
        2241000	      2239	80000294	d63f2823	sw	x3,-656(x30)	 x30:0x80002290  x3:0x00000001 PA:0x80002000 store:0x00000001 load:0x00000000
        2243000	      2241	80000298	bfe5	c.j	80000290	
        2244000	      2242	80000290	00002f17	auipc	x30,0x2	 x30=0x80002290
        2246000	      2244	80000294	d63f2823	sw	x3,-656(x30)	 x30:0x80002290  x3:0x00000001 PA:0x80002000 store:0x00000001 load:0x00000000
        2248000	      2246	80000298	bfe5	c.j	80000290	
        2249000	      2247	80000290	00002f17	auipc	x30,0x2	 x30=0x80002290
        2251000	      2249	80000294	d63f2823	sw	x3,-656(x30)	 x30:0x80002290  x3:0x00000001 PA:0x80002000 store:0x00000001 load:0x00000000
        2253000	      2251	80000298	bfe5	c.j	80000290	
        2254000	      2252	80000290	00002f17	auipc	x30,0x2	 x30=0x80002290
        2256000	      2254	80000294	d63f2823	sw	x3,-656(x30)	 x30:0x80002290  x3:0x00000001 PA:0x80002000 store:0x00000001 load:0x00000000
        2258000	      2256	80000298	bfe5	c.j	80000290	
        2259000	      2257	80000290	00002f17	auipc	x30,0x2	 x30=0x80002290
        2261000	      2259	80000294	d63f2823	sw	x3,-656(x30)	 x30:0x80002290  x3:0x00000001 PA:0x80002000 store:0x00000001 load:0x00000000
        2263000	      2261	80000298	bfe5	c.j	80000290	
        2264000	      2262	80000290	00002f17	auipc	x30,0x2	 x30=0x80002290
        2266000	      2264	80000294	d63f2823	sw	x3,-656(x30)	 x30:0x80002290  x3:0x00000001 PA:0x80002000 store:0x00000001 load:0x00000000
        2268000	      2266	80000298	bfe5	c.j	80000290	
        2269000	      2267	80000290	00002f17	auipc	x30,0x2	 x30=0x80002290
        2271000	      2269	80000294	d63f2823	sw	x3,-656(x30)	 x30:0x80002290  x3:0x00000001 PA:0x80002000 store:0x00000001 load:0x00000000
        2273000	      2271	80000298	bfe5	c.j	80000290	
        2274000	      2272	80000290	00002f17	auipc	x30,0x2	 x30=0x80002290
        2276000	      2274	80000294	d63f2823	sw	x3,-656(x30)	 x30:0x80002290  x3:0x00000001 PA:0x80002000 store:0x00000001 load:0x00000000
        2278000	      2276	80000298	bfe5	c.j	80000290	
        2279000	      2277	80000290	00002f17	auipc	x30,0x2	 x30=0x80002290
        2281000	      2279	80000294	d63f2823	sw	x3,-656(x30)	 x30:0x80002290  x3:0x00000001 PA:0x80002000 store:0x00000001 load:0x00000000
        2283000	      2281	80000298	bfe5	c.j	80000290	
        2284000	      2282	80000290	00002f17	auipc	x30,0x2	 x30=0x80002290
        2286000	      2284	80000294	d63f2823	sw	x3,-656(x30)	 x30:0x80002290  x3:0x00000001 PA:0x80002000 store:0x00000001 load:0x00000000
        2288000	      2286	80000298	bfe5	c.j	80000290	
        2289000	      2287	80000290	00002f17	auipc	x30,0x2	 x30=0x80002290
        2291000	      2289	80000294	d63f2823	sw	x3,-656(x30)	 x30:0x80002290  x3:0x00000001 PA:0x80002000 store:0x00000001 load:0x00000000
        2293000	      2291	80000298	bfe5	c.j	80000290	
        2294000	      2292	80000290	00002f17	auipc	x30,0x2	 x30=0x80002290
        2296000	      2294	80000294	d63f2823	sw	x3,-656(x30)	 x30:0x80002290  x3:0x00000001 PA:0x80002000 store:0x00000001 load:0x00000000
        2298000	      2296	80000298	bfe5	c.j	80000290	
        2299000	      2297	80000290	00002f17	auipc	x30,0x2	 x30=0x80002290
        2301000	      2299	80000294	d63f2823	sw	x3,-656(x30)	 x30:0x80002290  x3:0x00000001 PA:0x80002000 store:0x00000001 load:0x00000000
        2303000	      2301	80000298	bfe5	c.j	80000290	
        2304000	      2302	80000290	00002f17	auipc	x30,0x2	 x30=0x80002290
        2306000	      2304	80000294	d63f2823	sw	x3,-656(x30)	 x30:0x80002290  x3:0x00000001 PA:0x80002000 store:0x00000001 load:0x00000000
        2308000	      2306	80000298	bfe5	c.j	80000290	
        2309000	      2307	80000290	00002f17	auipc	x30,0x2	 x30=0x80002290
        2311000	      2309	80000294	d63f2823	sw	x3,-656(x30)	 x30:0x80002290  x3:0x00000001 PA:0x80002000 store:0x00000001 load:0x00000000
        2313000	      2311	80000298	bfe5	c.j	80000290	
        2314000	      2312	80000290	00002f17	auipc	x30,0x2	 x30=0x80002290
        2316000	      2314	80000294	d63f2823	sw	x3,-656(x30)	 x30:0x80002290  x3:0x00000001 PA:0x80002000 store:0x00000001 load:0x00000000
        2318000	      2316	80000298	bfe5	c.j	80000290	
        2319000	      2317	80000290	00002f17	auipc	x30,0x2	 x30=0x80002290
        2321000	      2319	80000294	d63f2823	sw	x3,-656(x30)	 x30:0x80002290  x3:0x00000001 PA:0x80002000 store:0x00000001 load:0x00000000
        2323000	      2321	80000298	bfe5	c.j	80000290	
        2324000	      2322	80000290	00002f17	auipc	x30,0x2	 x30=0x80002290
        2326000	      2324	80000294	d63f2823	sw	x3,-656(x30)	 x30:0x80002290  x3:0x00000001 PA:0x80002000 store:0x00000001 load:0x00000000
        2328000	      2326	80000298	bfe5	c.j	80000290	
        2329000	      2327	80000290	00002f17	auipc	x30,0x2	 x30=0x80002290
        2331000	      2329	80000294	d63f2823	sw	x3,-656(x30)	 x30:0x80002290  x3:0x00000001 PA:0x80002000 store:0x00000001 load:0x00000000
        2333000	      2331	80000298	bfe5	c.j	80000290	
        2334000	      2332	80000290	00002f17	auipc	x30,0x2	 x30=0x80002290
        2336000	      2334	80000294	d63f2823	sw	x3,-656(x30)	 x30:0x80002290  x3:0x00000001 PA:0x80002000 store:0x00000001 load:0x00000000
        2338000	      2336	80000298	bfe5	c.j	80000290	
        2339000	      2337	80000290	00002f17	auipc	x30,0x2	 x30=0x80002290
        2341000	      2339	80000294	d63f2823	sw	x3,-656(x30)	 x30:0x80002290  x3:0x00000001 PA:0x80002000 store:0x00000001 load:0x00000000
        2343000	      2341	80000298	bfe5	c.j	80000290	
        2344000	      2342	80000290	00002f17	auipc	x30,0x2	 x30=0x80002290
        2346000	      2344	80000294	d63f2823	sw	x3,-656(x30)	 x30:0x80002290  x3:0x00000001 PA:0x80002000 store:0x00000001 load:0x00000000
        2348000	      2346	80000298	bfe5	c.j	80000290	
        2349000	      2347	80000290	00002f17	auipc	x30,0x2	 x30=0x80002290
        2351000	      2349	80000294	d63f2823	sw	x3,-656(x30)	 x30:0x80002290  x3:0x00000001 PA:0x80002000 store:0x00000001 load:0x00000000
        2353000	      2351	80000298	bfe5	c.j	80000290	
        2354000	      2352	80000290	00002f17	auipc	x30,0x2	 x30=0x80002290
        2356000	      2354	80000294	d63f2823	sw	x3,-656(x30)	 x30:0x80002290  x3:0x00000001 PA:0x80002000 store:0x00000001 load:0x00000000
        2358000	      2356	80000298	bfe5	c.j	80000290	
        2359000	      2357	80000290	00002f17	auipc	x30,0x2	 x30=0x80002290
        2361000	      2359	80000294	d63f2823	sw	x3,-656(x30)	 x30:0x80002290  x3:0x00000001 PA:0x80002000 store:0x00000001 load:0x00000000
        2363000	      2361	80000298	bfe5	c.j	80000290	
        2364000	      2362	80000290	00002f17	auipc	x30,0x2	 x30=0x80002290
        2366000	      2364	80000294	d63f2823	sw	x3,-656(x30)	 x30:0x80002290  x3:0x00000001 PA:0x80002000 store:0x00000001 load:0x00000000
        2368000	      2366	80000298	bfe5	c.j	80000290	
        2369000	      2367	80000290	00002f17	auipc	x30,0x2	 x30=0x80002290
        2371000	      2369	80000294	d63f2823	sw	x3,-656(x30)	 x30:0x80002290  x3:0x00000001 PA:0x80002000 store:0x00000001 load:0x00000000
        2373000	      2371	80000298	bfe5	c.j	80000290	
        2374000	      2372	80000290	00002f17	auipc	x30,0x2	 x30=0x80002290
        2376000	      2374	80000294	d63f2823	sw	x3,-656(x30)	 x30:0x80002290  x3:0x00000001 PA:0x80002000 store:0x00000001 load:0x00000000
        2378000	      2376	80000298	bfe5	c.j	80000290	
        2379000	      2377	80000290	00002f17	auipc	x30,0x2	 x30=0x80002290
        2381000	      2379	80000294	d63f2823	sw	x3,-656(x30)	 x30:0x80002290  x3:0x00000001 PA:0x80002000 store:0x00000001 load:0x00000000
        2383000	      2381	80000298	bfe5	c.j	80000290	
        2384000	      2382	80000290	00002f17	auipc	x30,0x2	 x30=0x80002290
        2386000	      2384	80000294	d63f2823	sw	x3,-656(x30)	 x30:0x80002290  x3:0x00000001 PA:0x80002000 store:0x00000001 load:0x00000000
        2388000	      2386	80000298	bfe5	c.j	80000290	
        2389000	      2387	80000290	00002f17	auipc	x30,0x2	 x30=0x80002290
        2391000	      2389	80000294	d63f2823	sw	x3,-656(x30)	 x30:0x80002290  x3:0x00000001 PA:0x80002000 store:0x00000001 load:0x00000000
        2393000	      2391	80000298	bfe5	c.j	80000290	
        2394000	      2392	80000290	00002f17	auipc	x30,0x2	 x30=0x80002290
        2396000	      2394	80000294	d63f2823	sw	x3,-656(x30)	 x30:0x80002290  x3:0x00000001 PA:0x80002000 store:0x00000001 load:0x00000000
        2398000	      2396	80000298	bfe5	c.j	80000290	
        2399000	      2397	80000290	00002f17	auipc	x30,0x2	 x30=0x80002290
        2401000	      2399	80000294	d63f2823	sw	x3,-656(x30)	 x30:0x80002290  x3:0x00000001 PA:0x80002000 store:0x00000001 load:0x00000000
        2403000	      2401	80000298	bfe5	c.j	80000290	
        2404000	      2402	80000290	00002f17	auipc	x30,0x2	 x30=0x80002290
        2406000	      2404	80000294	d63f2823	sw	x3,-656(x30)	 x30:0x80002290  x3:0x00000001 PA:0x80002000 store:0x00000001 load:0x00000000
        2408000	      2406	80000298	bfe5	c.j	80000290	
        2409000	      2407	80000290	00002f17	auipc	x30,0x2	 x30=0x80002290
        2411000	      2409	80000294	d63f2823	sw	x3,-656(x30)	 x30:0x80002290  x3:0x00000001 PA:0x80002000 store:0x00000001 load:0x00000000
        2413000	      2411	80000298	bfe5	c.j	80000290	
        2414000	      2412	80000290	00002f17	auipc	x30,0x2	 x30=0x80002290
        2416000	      2414	80000294	d63f2823	sw	x3,-656(x30)	 x30:0x80002290  x3:0x00000001 PA:0x80002000 store:0x00000001 load:0x00000000
        2418000	      2416	80000298	bfe5	c.j	80000290	
        2419000	      2417	80000290	00002f17	auipc	x30,0x2	 x30=0x80002290
        2421000	      2419	80000294	d63f2823	sw	x3,-656(x30)	 x30:0x80002290  x3:0x00000001 PA:0x80002000 store:0x00000001 load:0x00000000
        2423000	      2421	80000298	bfe5	c.j	80000290	
        2424000	      2422	80000290	00002f17	auipc	x30,0x2	 x30=0x80002290
        2426000	      2424	80000294	d63f2823	sw	x3,-656(x30)	 x30:0x80002290  x3:0x00000001 PA:0x80002000 store:0x00000001 load:0x00000000
        2428000	      2426	80000298	bfe5	c.j	80000290	
        2429000	      2427	80000290	00002f17	auipc	x30,0x2	 x30=0x80002290
        2431000	      2429	80000294	d63f2823	sw	x3,-656(x30)	 x30:0x80002290  x3:0x00000001 PA:0x80002000 store:0x00000001 load:0x00000000
        2433000	      2431	80000298	bfe5	c.j	80000290	
        2434000	      2432	80000290	00002f17	auipc	x30,0x2	 x30=0x80002290
        2436000	      2434	80000294	d63f2823	sw	x3,-656(x30)	 x30:0x80002290  x3:0x00000001 PA:0x80002000 store:0x00000001 load:0x00000000
        2438000	      2436	80000298	bfe5	c.j	80000290	
        2439000	      2437	80000290	00002f17	auipc	x30,0x2	 x30=0x80002290
        2441000	      2439	80000294	d63f2823	sw	x3,-656(x30)	 x30:0x80002290  x3:0x00000001 PA:0x80002000 store:0x00000001 load:0x00000000
        2443000	      2441	80000298	bfe5	c.j	80000290	
        2444000	      2442	80000290	00002f17	auipc	x30,0x2	 x30=0x80002290
        2446000	      2444	80000294	d63f2823	sw	x3,-656(x30)	 x30:0x80002290  x3:0x00000001 PA:0x80002000 store:0x00000001 load:0x00000000
        2448000	      2446	80000298	bfe5	c.j	80000290	
        2449000	      2447	80000290	00002f17	auipc	x30,0x2	 x30=0x80002290
        2451000	      2449	80000294	d63f2823	sw	x3,-656(x30)	 x30:0x80002290  x3:0x00000001 PA:0x80002000 store:0x00000001 load:0x00000000
        2453000	      2451	80000298	bfe5	c.j	80000290	
        2454000	      2452	80000290	00002f17	auipc	x30,0x2	 x30=0x80002290
        2456000	      2454	80000294	d63f2823	sw	x3,-656(x30)	 x30:0x80002290  x3:0x00000001 PA:0x80002000 store:0x00000001 load:0x00000000
        2458000	      2456	80000298	bfe5	c.j	80000290	
        2459000	      2457	80000290	00002f17	auipc	x30,0x2	 x30=0x80002290
        2461000	      2459	80000294	d63f2823	sw	x3,-656(x30)	 x30:0x80002290  x3:0x00000001 PA:0x80002000 store:0x00000001 load:0x00000000
        2463000	      2461	80000298	bfe5	c.j	80000290	
        2464000	      2462	80000290	00002f17	auipc	x30,0x2	 x30=0x80002290
        2466000	      2464	80000294	d63f2823	sw	x3,-656(x30)	 x30:0x80002290  x3:0x00000001 PA:0x80002000 store:0x00000001 load:0x00000000
        2468000	      2466	80000298	bfe5	c.j	80000290	
        2469000	      2467	80000290	00002f17	auipc	x30,0x2	 x30=0x80002290
        2471000	      2469	80000294	d63f2823	sw	x3,-656(x30)	 x30:0x80002290  x3:0x00000001 PA:0x80002000 store:0x00000001 load:0x00000000
        2473000	      2471	80000298	bfe5	c.j	80000290	
        2474000	      2472	80000290	00002f17	auipc	x30,0x2	 x30=0x80002290
        2476000	      2474	80000294	d63f2823	sw	x3,-656(x30)	 x30:0x80002290  x3:0x00000001 PA:0x80002000 store:0x00000001 load:0x00000000
        2478000	      2476	80000298	bfe5	c.j	80000290	
        2479000	      2477	80000290	00002f17	auipc	x30,0x2	 x30=0x80002290
        2481000	      2479	80000294	d63f2823	sw	x3,-656(x30)	 x30:0x80002290  x3:0x00000001 PA:0x80002000 store:0x00000001 load:0x00000000
        2483000	      2481	80000298	bfe5	c.j	80000290	
        2484000	      2482	80000290	00002f17	auipc	x30,0x2	 x30=0x80002290
        2486000	      2484	80000294	d63f2823	sw	x3,-656(x30)	 x30:0x80002290  x3:0x00000001 PA:0x80002000 store:0x00000001 load:0x00000000
        2488000	      2486	80000298	bfe5	c.j	80000290	
        2489000	      2487	80000290	00002f17	auipc	x30,0x2	 x30=0x80002290
        2491000	      2489	80000294	d63f2823	sw	x3,-656(x30)	 x30:0x80002290  x3:0x00000001 PA:0x80002000 store:0x00000001 load:0x00000000
        2493000	      2491	80000298	bfe5	c.j	80000290	
        2494000	      2492	80000290	00002f17	auipc	x30,0x2	 x30=0x80002290
        2496000	      2494	80000294	d63f2823	sw	x3,-656(x30)	 x30:0x80002290  x3:0x00000001 PA:0x80002000 store:0x00000001 load:0x00000000
        2498000	      2496	80000298	bfe5	c.j	80000290	
        2499000	      2497	80000290	00002f17	auipc	x30,0x2	 x30=0x80002290
        2501000	      2499	80000294	d63f2823	sw	x3,-656(x30)	 x30:0x80002290  x3:0x00000001 PA:0x80002000 store:0x00000001 load:0x00000000
        2503000	      2501	80000298	bfe5	c.j	80000290	
        2504000	      2502	80000290	00002f17	auipc	x30,0x2	 x30=0x80002290
        2506000	      2504	80000294	d63f2823	sw	x3,-656(x30)	 x30:0x80002290  x3:0x00000001 PA:0x80002000 store:0x00000001 load:0x00000000
        2508000	      2506	80000298	bfe5	c.j	80000290	
        2509000	      2507	80000290	00002f17	auipc	x30,0x2	 x30=0x80002290
        2511000	      2509	80000294	d63f2823	sw	x3,-656(x30)	 x30:0x80002290  x3:0x00000001 PA:0x80002000 store:0x00000001 load:0x00000000
        2513000	      2511	80000298	bfe5	c.j	80000290	
        2514000	      2512	80000290	00002f17	auipc	x30,0x2	 x30=0x80002290
        2516000	      2514	80000294	d63f2823	sw	x3,-656(x30)	 x30:0x80002290  x3:0x00000001 PA:0x80002000 store:0x00000001 load:0x00000000
        2518000	      2516	80000298	bfe5	c.j	80000290	
        2519000	      2517	80000290	00002f17	auipc	x30,0x2	 x30=0x80002290
        2521000	      2519	80000294	d63f2823	sw	x3,-656(x30)	 x30:0x80002290  x3:0x00000001 PA:0x80002000 store:0x00000001 load:0x00000000
        2523000	      2521	80000298	bfe5	c.j	80000290	
        2524000	      2522	80000290	00002f17	auipc	x30,0x2	 x30=0x80002290
        2526000	      2524	80000294	d63f2823	sw	x3,-656(x30)	 x30:0x80002290  x3:0x00000001 PA:0x80002000 store:0x00000001 load:0x00000000
        2528000	      2526	80000298	bfe5	c.j	80000290	
        2529000	      2527	80000290	00002f17	auipc	x30,0x2	 x30=0x80002290
        2531000	      2529	80000294	d63f2823	sw	x3,-656(x30)	 x30:0x80002290  x3:0x00000001 PA:0x80002000 store:0x00000001 load:0x00000000
        2533000	      2531	80000298	bfe5	c.j	80000290	
        2534000	      2532	80000290	00002f17	auipc	x30,0x2	 x30=0x80002290
        2536000	      2534	80000294	d63f2823	sw	x3,-656(x30)	 x30:0x80002290  x3:0x00000001 PA:0x80002000 store:0x00000001 load:0x00000000
        2538000	      2536	80000298	bfe5	c.j	80000290	
        2539000	      2537	80000290	00002f17	auipc	x30,0x2	 x30=0x80002290
        2541000	      2539	80000294	d63f2823	sw	x3,-656(x30)	 x30:0x80002290  x3:0x00000001 PA:0x80002000 store:0x00000001 load:0x00000000
        2543000	      2541	80000298	bfe5	c.j	80000290	
        2544000	      2542	80000290	00002f17	auipc	x30,0x2	 x30=0x80002290
        2546000	      2544	80000294	d63f2823	sw	x3,-656(x30)	 x30:0x80002290  x3:0x00000001 PA:0x80002000 store:0x00000001 load:0x00000000
        2548000	      2546	80000298	bfe5	c.j	80000290	
        2549000	      2547	80000290	00002f17	auipc	x30,0x2	 x30=0x80002290
        2551000	      2549	80000294	d63f2823	sw	x3,-656(x30)	 x30:0x80002290  x3:0x00000001 PA:0x80002000 store:0x00000001 load:0x00000000
        2553000	      2551	80000298	bfe5	c.j	80000290	
        2554000	      2552	80000290	00002f17	auipc	x30,0x2	 x30=0x80002290
        2556000	      2554	80000294	d63f2823	sw	x3,-656(x30)	 x30:0x80002290  x3:0x00000001 PA:0x80002000 store:0x00000001 load:0x00000000
        2558000	      2556	80000298	bfe5	c.j	80000290	
        2559000	      2557	80000290	00002f17	auipc	x30,0x2	 x30=0x80002290
        2561000	      2559	80000294	d63f2823	sw	x3,-656(x30)	 x30:0x80002290  x3:0x00000001 PA:0x80002000 store:0x00000001 load:0x00000000
        2563000	      2561	80000298	bfe5	c.j	80000290	
        2564000	      2562	80000290	00002f17	auipc	x30,0x2	 x30=0x80002290
        2566000	      2564	80000294	d63f2823	sw	x3,-656(x30)	 x30:0x80002290  x3:0x00000001 PA:0x80002000 store:0x00000001 load:0x00000000
        2568000	      2566	80000298	bfe5	c.j	80000290	
        2569000	      2567	80000290	00002f17	auipc	x30,0x2	 x30=0x80002290
        2571000	      2569	80000294	d63f2823	sw	x3,-656(x30)	 x30:0x80002290  x3:0x00000001 PA:0x80002000 store:0x00000001 load:0x00000000
        2573000	      2571	80000298	bfe5	c.j	80000290	
        2574000	      2572	80000290	00002f17	auipc	x30,0x2	 x30=0x80002290
        2576000	      2574	80000294	d63f2823	sw	x3,-656(x30)	 x30:0x80002290  x3:0x00000001 PA:0x80002000 store:0x00000001 load:0x00000000
        2578000	      2576	80000298	bfe5	c.j	80000290	
        2579000	      2577	80000290	00002f17	auipc	x30,0x2	 x30=0x80002290
        2581000	      2579	80000294	d63f2823	sw	x3,-656(x30)	 x30:0x80002290  x3:0x00000001 PA:0x80002000 store:0x00000001 load:0x00000000
        2583000	      2581	80000298	bfe5	c.j	80000290	
        2584000	      2582	80000290	00002f17	auipc	x30,0x2	 x30=0x80002290
        2586000	      2584	80000294	d63f2823	sw	x3,-656(x30)	 x30:0x80002290  x3:0x00000001 PA:0x80002000 store:0x00000001 load:0x00000000
        2588000	      2586	80000298	bfe5	c.j	80000290	
        2589000	      2587	80000290	00002f17	auipc	x30,0x2	 x30=0x80002290
        2591000	      2589	80000294	d63f2823	sw	x3,-656(x30)	 x30:0x80002290  x3:0x00000001 PA:0x80002000 store:0x00000001 load:0x00000000
        2593000	      2591	80000298	bfe5	c.j	80000290	
        2594000	      2592	80000290	00002f17	auipc	x30,0x2	 x30=0x80002290
        2596000	      2594	80000294	d63f2823	sw	x3,-656(x30)	 x30:0x80002290  x3:0x00000001 PA:0x80002000 store:0x00000001 load:0x00000000
        2598000	      2596	80000298	bfe5	c.j	80000290	
        2599000	      2597	80000290	00002f17	auipc	x30,0x2	 x30=0x80002290
        2601000	      2599	80000294	d63f2823	sw	x3,-656(x30)	 x30:0x80002290  x3:0x00000001 PA:0x80002000 store:0x00000001 load:0x00000000
        2603000	      2601	80000298	bfe5	c.j	80000290	
        2604000	      2602	80000290	00002f17	auipc	x30,0x2	 x30=0x80002290
        2606000	      2604	80000294	d63f2823	sw	x3,-656(x30)	 x30:0x80002290  x3:0x00000001 PA:0x80002000 store:0x00000001 load:0x00000000
        2608000	      2606	80000298	bfe5	c.j	80000290	
        2609000	      2607	80000290	00002f17	auipc	x30,0x2	 x30=0x80002290
        2611000	      2609	80000294	d63f2823	sw	x3,-656(x30)	 x30:0x80002290  x3:0x00000001 PA:0x80002000 store:0x00000001 load:0x00000000
        2613000	      2611	80000298	bfe5	c.j	80000290	
        2614000	      2612	80000290	00002f17	auipc	x30,0x2	 x30=0x80002290
        2616000	      2614	80000294	d63f2823	sw	x3,-656(x30)	 x30:0x80002290  x3:0x00000001 PA:0x80002000 store:0x00000001 load:0x00000000
        2618000	      2616	80000298	bfe5	c.j	80000290	
        2619000	      2617	80000290	00002f17	auipc	x30,0x2	 x30=0x80002290
        2621000	      2619	80000294	d63f2823	sw	x3,-656(x30)	 x30:0x80002290  x3:0x00000001 PA:0x80002000 store:0x00000001 load:0x00000000
        2623000	      2621	80000298	bfe5	c.j	80000290	
        2624000	      2622	80000290	00002f17	auipc	x30,0x2	 x30=0x80002290
        2626000	      2624	80000294	d63f2823	sw	x3,-656(x30)	 x30:0x80002290  x3:0x00000001 PA:0x80002000 store:0x00000001 load:0x00000000
        2628000	      2626	80000298	bfe5	c.j	80000290	
        2629000	      2627	80000290	00002f17	auipc	x30,0x2	 x30=0x80002290
        2631000	      2629	80000294	d63f2823	sw	x3,-656(x30)	 x30:0x80002290  x3:0x00000001 PA:0x80002000 store:0x00000001 load:0x00000000
        2633000	      2631	80000298	bfe5	c.j	80000290	
        2634000	      2632	80000290	00002f17	auipc	x30,0x2	 x30=0x80002290
        2636000	      2634	80000294	d63f2823	sw	x3,-656(x30)	 x30:0x80002290  x3:0x00000001 PA:0x80002000 store:0x00000001 load:0x00000000
        2638000	      2636	80000298	bfe5	c.j	80000290	
        2639000	      2637	80000290	00002f17	auipc	x30,0x2	 x30=0x80002290
        2641000	      2639	80000294	d63f2823	sw	x3,-656(x30)	 x30:0x80002290  x3:0x00000001 PA:0x80002000 store:0x00000001 load:0x00000000
        2643000	      2641	80000298	bfe5	c.j	80000290	
        2644000	      2642	80000290	00002f17	auipc	x30,0x2	 x30=0x80002290
        2646000	      2644	80000294	d63f2823	sw	x3,-656(x30)	 x30:0x80002290  x3:0x00000001 PA:0x80002000 store:0x00000001 load:0x00000000
        2648000	      2646	80000298	bfe5	c.j	80000290	
        2649000	      2647	80000290	00002f17	auipc	x30,0x2	 x30=0x80002290
        2651000	      2649	80000294	d63f2823	sw	x3,-656(x30)	 x30:0x80002290  x3:0x00000001 PA:0x80002000 store:0x00000001 load:0x00000000
        2653000	      2651	80000298	bfe5	c.j	80000290	
        2654000	      2652	80000290	00002f17	auipc	x30,0x2	 x30=0x80002290
        2656000	      2654	80000294	d63f2823	sw	x3,-656(x30)	 x30:0x80002290  x3:0x00000001 PA:0x80002000 store:0x00000001 load:0x00000000
        2658000	      2656	80000298	bfe5	c.j	80000290	
        2659000	      2657	80000290	00002f17	auipc	x30,0x2	 x30=0x80002290
        2661000	      2659	80000294	d63f2823	sw	x3,-656(x30)	 x30:0x80002290  x3:0x00000001 PA:0x80002000 store:0x00000001 load:0x00000000
        2663000	      2661	80000298	bfe5	c.j	80000290	
        2664000	      2662	80000290	00002f17	auipc	x30,0x2	 x30=0x80002290
        2666000	      2664	80000294	d63f2823	sw	x3,-656(x30)	 x30:0x80002290  x3:0x00000001 PA:0x80002000 store:0x00000001 load:0x00000000
        2668000	      2666	80000298	bfe5	c.j	80000290	
        2669000	      2667	80000290	00002f17	auipc	x30,0x2	 x30=0x80002290
        2671000	      2669	80000294	d63f2823	sw	x3,-656(x30)	 x30:0x80002290  x3:0x00000001 PA:0x80002000 store:0x00000001 load:0x00000000
        2673000	      2671	80000298	bfe5	c.j	80000290	
        2674000	      2672	80000290	00002f17	auipc	x30,0x2	 x30=0x80002290
        2676000	      2674	80000294	d63f2823	sw	x3,-656(x30)	 x30:0x80002290  x3:0x00000001 PA:0x80002000 store:0x00000001 load:0x00000000
        2678000	      2676	80000298	bfe5	c.j	80000290	
        2679000	      2677	80000290	00002f17	auipc	x30,0x2	 x30=0x80002290
        2681000	      2679	80000294	d63f2823	sw	x3,-656(x30)	 x30:0x80002290  x3:0x00000001 PA:0x80002000 store:0x00000001 load:0x00000000
        2683000	      2681	80000298	bfe5	c.j	80000290	
        2684000	      2682	80000290	00002f17	auipc	x30,0x2	 x30=0x80002290
        2686000	      2684	80000294	d63f2823	sw	x3,-656(x30)	 x30:0x80002290  x3:0x00000001 PA:0x80002000 store:0x00000001 load:0x00000000
        2688000	      2686	80000298	bfe5	c.j	80000290	
        2689000	      2687	80000290	00002f17	auipc	x30,0x2	 x30=0x80002290
        2691000	      2689	80000294	d63f2823	sw	x3,-656(x30)	 x30:0x80002290  x3:0x00000001 PA:0x80002000 store:0x00000001 load:0x00000000
        2693000	      2691	80000298	bfe5	c.j	80000290	
        2694000	      2692	80000290	00002f17	auipc	x30,0x2	 x30=0x80002290
        2696000	      2694	80000294	d63f2823	sw	x3,-656(x30)	 x30:0x80002290  x3:0x00000001 PA:0x80002000 store:0x00000001 load:0x00000000
        2698000	      2696	80000298	bfe5	c.j	80000290	
        2699000	      2697	80000290	00002f17	auipc	x30,0x2	 x30=0x80002290
        2701000	      2699	80000294	d63f2823	sw	x3,-656(x30)	 x30:0x80002290  x3:0x00000001 PA:0x80002000 store:0x00000001 load:0x00000000
        2703000	      2701	80000298	bfe5	c.j	80000290	
        2704000	      2702	80000290	00002f17	auipc	x30,0x2	 x30=0x80002290
        2706000	      2704	80000294	d63f2823	sw	x3,-656(x30)	 x30:0x80002290  x3:0x00000001 PA:0x80002000 store:0x00000001 load:0x00000000
        2708000	      2706	80000298	bfe5	c.j	80000290	
        2709000	      2707	80000290	00002f17	auipc	x30,0x2	 x30=0x80002290
        2711000	      2709	80000294	d63f2823	sw	x3,-656(x30)	 x30:0x80002290  x3:0x00000001 PA:0x80002000 store:0x00000001 load:0x00000000
        2713000	      2711	80000298	bfe5	c.j	80000290	
        2714000	      2712	80000290	00002f17	auipc	x30,0x2	 x30=0x80002290
        2716000	      2714	80000294	d63f2823	sw	x3,-656(x30)	 x30:0x80002290  x3:0x00000001 PA:0x80002000 store:0x00000001 load:0x00000000
        2718000	      2716	80000298	bfe5	c.j	80000290	
        2719000	      2717	80000290	00002f17	auipc	x30,0x2	 x30=0x80002290
        2721000	      2719	80000294	d63f2823	sw	x3,-656(x30)	 x30:0x80002290  x3:0x00000001 PA:0x80002000 store:0x00000001 load:0x00000000
        2723000	      2721	80000298	bfe5	c.j	80000290	
        2724000	      2722	80000290	00002f17	auipc	x30,0x2	 x30=0x80002290
        2726000	      2724	80000294	d63f2823	sw	x3,-656(x30)	 x30:0x80002290  x3:0x00000001 PA:0x80002000 store:0x00000001 load:0x00000000
        2728000	      2726	80000298	bfe5	c.j	80000290	
        2729000	      2727	80000290	00002f17	auipc	x30,0x2	 x30=0x80002290
        2731000	      2729	80000294	d63f2823	sw	x3,-656(x30)	 x30:0x80002290  x3:0x00000001 PA:0x80002000 store:0x00000001 load:0x00000000
        2733000	      2731	80000298	bfe5	c.j	80000290	
        2734000	      2732	80000290	00002f17	auipc	x30,0x2	 x30=0x80002290
        2736000	      2734	80000294	d63f2823	sw	x3,-656(x30)	 x30:0x80002290  x3:0x00000001 PA:0x80002000 store:0x00000001 load:0x00000000
        2738000	      2736	80000298	bfe5	c.j	80000290	
        2739000	      2737	80000290	00002f17	auipc	x30,0x2	 x30=0x80002290
        2741000	      2739	80000294	d63f2823	sw	x3,-656(x30)	 x30:0x80002290  x3:0x00000001 PA:0x80002000 store:0x00000001 load:0x00000000
        2743000	      2741	80000298	bfe5	c.j	80000290	
        2744000	      2742	80000290	00002f17	auipc	x30,0x2	 x30=0x80002290
        2746000	      2744	80000294	d63f2823	sw	x3,-656(x30)	 x30:0x80002290  x3:0x00000001 PA:0x80002000 store:0x00000001 load:0x00000000
        2748000	      2746	80000298	bfe5	c.j	80000290	
        2749000	      2747	80000290	00002f17	auipc	x30,0x2	 x30=0x80002290
        2751000	      2749	80000294	d63f2823	sw	x3,-656(x30)	 x30:0x80002290  x3:0x00000001 PA:0x80002000 store:0x00000001 load:0x00000000
        2753000	      2751	80000298	bfe5	c.j	80000290	
        2754000	      2752	80000290	00002f17	auipc	x30,0x2	 x30=0x80002290
        2756000	      2754	80000294	d63f2823	sw	x3,-656(x30)	 x30:0x80002290  x3:0x00000001 PA:0x80002000 store:0x00000001 load:0x00000000
        2758000	      2756	80000298	bfe5	c.j	80000290	
        2759000	      2757	80000290	00002f17	auipc	x30,0x2	 x30=0x80002290
        2761000	      2759	80000294	d63f2823	sw	x3,-656(x30)	 x30:0x80002290  x3:0x00000001 PA:0x80002000 store:0x00000001 load:0x00000000
        2763000	      2761	80000298	bfe5	c.j	80000290	
        2764000	      2762	80000290	00002f17	auipc	x30,0x2	 x30=0x80002290
        2766000	      2764	80000294	d63f2823	sw	x3,-656(x30)	 x30:0x80002290  x3:0x00000001 PA:0x80002000 store:0x00000001 load:0x00000000
        2768000	      2766	80000298	bfe5	c.j	80000290	
        2769000	      2767	80000290	00002f17	auipc	x30,0x2	 x30=0x80002290
        2771000	      2769	80000294	d63f2823	sw	x3,-656(x30)	 x30:0x80002290  x3:0x00000001 PA:0x80002000 store:0x00000001 load:0x00000000
        2773000	      2771	80000298	bfe5	c.j	80000290	
        2774000	      2772	80000290	00002f17	auipc	x30,0x2	 x30=0x80002290
        2776000	      2774	80000294	d63f2823	sw	x3,-656(x30)	 x30:0x80002290  x3:0x00000001 PA:0x80002000 store:0x00000001 load:0x00000000
        2778000	      2776	80000298	bfe5	c.j	80000290	
        2779000	      2777	80000290	00002f17	auipc	x30,0x2	 x30=0x80002290
        2781000	      2779	80000294	d63f2823	sw	x3,-656(x30)	 x30:0x80002290  x3:0x00000001 PA:0x80002000 store:0x00000001 load:0x00000000
        2783000	      2781	80000298	bfe5	c.j	80000290	
        2784000	      2782	80000290	00002f17	auipc	x30,0x2	 x30=0x80002290
        2786000	      2784	80000294	d63f2823	sw	x3,-656(x30)	 x30:0x80002290  x3:0x00000001 PA:0x80002000 store:0x00000001 load:0x00000000
        2788000	      2786	80000298	bfe5	c.j	80000290	
        2789000	      2787	80000290	00002f17	auipc	x30,0x2	 x30=0x80002290
        2791000	      2789	80000294	d63f2823	sw	x3,-656(x30)	 x30:0x80002290  x3:0x00000001 PA:0x80002000 store:0x00000001 load:0x00000000
        2793000	      2791	80000298	bfe5	c.j	80000290	
        2794000	      2792	80000290	00002f17	auipc	x30,0x2	 x30=0x80002290
        2796000	      2794	80000294	d63f2823	sw	x3,-656(x30)	 x30:0x80002290  x3:0x00000001 PA:0x80002000 store:0x00000001 load:0x00000000
        2798000	      2796	80000298	bfe5	c.j	80000290	
        2799000	      2797	80000290	00002f17	auipc	x30,0x2	 x30=0x80002290
        2801000	      2799	80000294	d63f2823	sw	x3,-656(x30)	 x30:0x80002290  x3:0x00000001 PA:0x80002000 store:0x00000001 load:0x00000000
        2803000	      2801	80000298	bfe5	c.j	80000290	
        2804000	      2802	80000290	00002f17	auipc	x30,0x2	 x30=0x80002290
        2806000	      2804	80000294	d63f2823	sw	x3,-656(x30)	 x30:0x80002290  x3:0x00000001 PA:0x80002000 store:0x00000001 load:0x00000000
        2808000	      2806	80000298	bfe5	c.j	80000290	
        2809000	      2807	80000290	00002f17	auipc	x30,0x2	 x30=0x80002290
        2811000	      2809	80000294	d63f2823	sw	x3,-656(x30)	 x30:0x80002290  x3:0x00000001 PA:0x80002000 store:0x00000001 load:0x00000000
        2813000	      2811	80000298	bfe5	c.j	80000290	
        2814000	      2812	80000290	00002f17	auipc	x30,0x2	 x30=0x80002290
        2816000	      2814	80000294	d63f2823	sw	x3,-656(x30)	 x30:0x80002290  x3:0x00000001 PA:0x80002000 store:0x00000001 load:0x00000000
        2818000	      2816	80000298	bfe5	c.j	80000290	
        2819000	      2817	80000290	00002f17	auipc	x30,0x2	 x30=0x80002290
        2821000	      2819	80000294	d63f2823	sw	x3,-656(x30)	 x30:0x80002290  x3:0x00000001 PA:0x80002000 store:0x00000001 load:0x00000000
        2823000	      2821	80000298	bfe5	c.j	80000290	
        2824000	      2822	80000290	00002f17	auipc	x30,0x2	 x30=0x80002290
        2826000	      2824	80000294	d63f2823	sw	x3,-656(x30)	 x30:0x80002290  x3:0x00000001 PA:0x80002000 store:0x00000001 load:0x00000000
        2828000	      2826	80000298	bfe5	c.j	80000290	
        2829000	      2827	80000290	00002f17	auipc	x30,0x2	 x30=0x80002290
        2831000	      2829	80000294	d63f2823	sw	x3,-656(x30)	 x30:0x80002290  x3:0x00000001 PA:0x80002000 store:0x00000001 load:0x00000000
        2833000	      2831	80000298	bfe5	c.j	80000290	
        2834000	      2832	80000290	00002f17	auipc	x30,0x2	 x30=0x80002290
        2836000	      2834	80000294	d63f2823	sw	x3,-656(x30)	 x30:0x80002290  x3:0x00000001 PA:0x80002000 store:0x00000001 load:0x00000000
        2838000	      2836	80000298	bfe5	c.j	80000290	
        2839000	      2837	80000290	00002f17	auipc	x30,0x2	 x30=0x80002290
        2841000	      2839	80000294	d63f2823	sw	x3,-656(x30)	 x30:0x80002290  x3:0x00000001 PA:0x80002000 store:0x00000001 load:0x00000000
        2843000	      2841	80000298	bfe5	c.j	80000290	
        2844000	      2842	80000290	00002f17	auipc	x30,0x2	 x30=0x80002290
        2846000	      2844	80000294	d63f2823	sw	x3,-656(x30)	 x30:0x80002290  x3:0x00000001 PA:0x80002000 store:0x00000001 load:0x00000000
        2848000	      2846	80000298	bfe5	c.j	80000290	
        2849000	      2847	80000290	00002f17	auipc	x30,0x2	 x30=0x80002290
        2851000	      2849	80000294	d63f2823	sw	x3,-656(x30)	 x30:0x80002290  x3:0x00000001 PA:0x80002000 store:0x00000001 load:0x00000000
        2853000	      2851	80000298	bfe5	c.j	80000290	
        2854000	      2852	80000290	00002f17	auipc	x30,0x2	 x30=0x80002290
        2856000	      2854	80000294	d63f2823	sw	x3,-656(x30)	 x30:0x80002290  x3:0x00000001 PA:0x80002000 store:0x00000001 load:0x00000000
        2858000	      2856	80000298	bfe5	c.j	80000290	
        2859000	      2857	80000290	00002f17	auipc	x30,0x2	 x30=0x80002290
        2861000	      2859	80000294	d63f2823	sw	x3,-656(x30)	 x30:0x80002290  x3:0x00000001 PA:0x80002000 store:0x00000001 load:0x00000000
        2863000	      2861	80000298	bfe5	c.j	80000290	
        2864000	      2862	80000290	00002f17	auipc	x30,0x2	 x30=0x80002290
        2866000	      2864	80000294	d63f2823	sw	x3,-656(x30)	 x30:0x80002290  x3:0x00000001 PA:0x80002000 store:0x00000001 load:0x00000000
        2868000	      2866	80000298	bfe5	c.j	80000290	
        2869000	      2867	80000290	00002f17	auipc	x30,0x2	 x30=0x80002290
        2871000	      2869	80000294	d63f2823	sw	x3,-656(x30)	 x30:0x80002290  x3:0x00000001 PA:0x80002000 store:0x00000001 load:0x00000000
        2873000	      2871	80000298	bfe5	c.j	80000290	
        2874000	      2872	80000290	00002f17	auipc	x30,0x2	 x30=0x80002290
        2876000	      2874	80000294	d63f2823	sw	x3,-656(x30)	 x30:0x80002290  x3:0x00000001 PA:0x80002000 store:0x00000001 load:0x00000000
        2878000	      2876	80000298	bfe5	c.j	80000290	
        2879000	      2877	80000290	00002f17	auipc	x30,0x2	 x30=0x80002290
        2881000	      2879	80000294	d63f2823	sw	x3,-656(x30)	 x30:0x80002290  x3:0x00000001 PA:0x80002000 store:0x00000001 load:0x00000000
        2883000	      2881	80000298	bfe5	c.j	80000290	
        2884000	      2882	80000290	00002f17	auipc	x30,0x2	 x30=0x80002290
        2886000	      2884	80000294	d63f2823	sw	x3,-656(x30)	 x30:0x80002290  x3:0x00000001 PA:0x80002000 store:0x00000001 load:0x00000000
        2888000	      2886	80000298	bfe5	c.j	80000290	
        2889000	      2887	80000290	00002f17	auipc	x30,0x2	 x30=0x80002290
        2891000	      2889	80000294	d63f2823	sw	x3,-656(x30)	 x30:0x80002290  x3:0x00000001 PA:0x80002000 store:0x00000001 load:0x00000000
        2893000	      2891	80000298	bfe5	c.j	80000290	
        2894000	      2892	80000290	00002f17	auipc	x30,0x2	 x30=0x80002290
        2896000	      2894	80000294	d63f2823	sw	x3,-656(x30)	 x30:0x80002290  x3:0x00000001 PA:0x80002000 store:0x00000001 load:0x00000000
        2898000	      2896	80000298	bfe5	c.j	80000290	
        2899000	      2897	80000290	00002f17	auipc	x30,0x2	 x30=0x80002290
        2901000	      2899	80000294	d63f2823	sw	x3,-656(x30)	 x30:0x80002290  x3:0x00000001 PA:0x80002000 store:0x00000001 load:0x00000000
        2903000	      2901	80000298	bfe5	c.j	80000290	
        2904000	      2902	80000290	00002f17	auipc	x30,0x2	 x30=0x80002290
        2906000	      2904	80000294	d63f2823	sw	x3,-656(x30)	 x30:0x80002290  x3:0x00000001 PA:0x80002000 store:0x00000001 load:0x00000000
        2908000	      2906	80000298	bfe5	c.j	80000290	
        2909000	      2907	80000290	00002f17	auipc	x30,0x2	 x30=0x80002290
        2911000	      2909	80000294	d63f2823	sw	x3,-656(x30)	 x30:0x80002290  x3:0x00000001 PA:0x80002000 store:0x00000001 load:0x00000000
        2913000	      2911	80000298	bfe5	c.j	80000290	
        2914000	      2912	80000290	00002f17	auipc	x30,0x2	 x30=0x80002290
        2916000	      2914	80000294	d63f2823	sw	x3,-656(x30)	 x30:0x80002290  x3:0x00000001 PA:0x80002000 store:0x00000001 load:0x00000000
        2918000	      2916	80000298	bfe5	c.j	80000290	
        2919000	      2917	80000290	00002f17	auipc	x30,0x2	 x30=0x80002290
        2921000	      2919	80000294	d63f2823	sw	x3,-656(x30)	 x30:0x80002290  x3:0x00000001 PA:0x80002000 store:0x00000001 load:0x00000000
        2923000	      2921	80000298	bfe5	c.j	80000290	
        2924000	      2922	80000290	00002f17	auipc	x30,0x2	 x30=0x80002290
        2926000	      2924	80000294	d63f2823	sw	x3,-656(x30)	 x30:0x80002290  x3:0x00000001 PA:0x80002000 store:0x00000001 load:0x00000000
        2928000	      2926	80000298	bfe5	c.j	80000290	
        2929000	      2927	80000290	00002f17	auipc	x30,0x2	 x30=0x80002290
        2931000	      2929	80000294	d63f2823	sw	x3,-656(x30)	 x30:0x80002290  x3:0x00000001 PA:0x80002000 store:0x00000001 load:0x00000000
        2933000	      2931	80000298	bfe5	c.j	80000290	
        2934000	      2932	80000290	00002f17	auipc	x30,0x2	 x30=0x80002290
        2936000	      2934	80000294	d63f2823	sw	x3,-656(x30)	 x30:0x80002290  x3:0x00000001 PA:0x80002000 store:0x00000001 load:0x00000000
        2938000	      2936	80000298	bfe5	c.j	80000290	
        2939000	      2937	80000290	00002f17	auipc	x30,0x2	 x30=0x80002290
        2941000	      2939	80000294	d63f2823	sw	x3,-656(x30)	 x30:0x80002290  x3:0x00000001 PA:0x80002000 store:0x00000001 load:0x00000000
        2943000	      2941	80000298	bfe5	c.j	80000290	
        2944000	      2942	80000290	00002f17	auipc	x30,0x2	 x30=0x80002290
        2946000	      2944	80000294	d63f2823	sw	x3,-656(x30)	 x30:0x80002290  x3:0x00000001 PA:0x80002000 store:0x00000001 load:0x00000000
        2948000	      2946	80000298	bfe5	c.j	80000290	
        2949000	      2947	80000290	00002f17	auipc	x30,0x2	 x30=0x80002290
        2951000	      2949	80000294	d63f2823	sw	x3,-656(x30)	 x30:0x80002290  x3:0x00000001 PA:0x80002000 store:0x00000001 load:0x00000000
        2953000	      2951	80000298	bfe5	c.j	80000290	
        2954000	      2952	80000290	00002f17	auipc	x30,0x2	 x30=0x80002290
        2956000	      2954	80000294	d63f2823	sw	x3,-656(x30)	 x30:0x80002290  x3:0x00000001 PA:0x80002000 store:0x00000001 load:0x00000000
        2958000	      2956	80000298	bfe5	c.j	80000290	
        2959000	      2957	80000290	00002f17	auipc	x30,0x2	 x30=0x80002290
        2961000	      2959	80000294	d63f2823	sw	x3,-656(x30)	 x30:0x80002290  x3:0x00000001 PA:0x80002000 store:0x00000001 load:0x00000000
        2963000	      2961	80000298	bfe5	c.j	80000290	
        2964000	      2962	80000290	00002f17	auipc	x30,0x2	 x30=0x80002290
        2966000	      2964	80000294	d63f2823	sw	x3,-656(x30)	 x30:0x80002290  x3:0x00000001 PA:0x80002000 store:0x00000001 load:0x00000000
        2968000	      2966	80000298	bfe5	c.j	80000290	
        2969000	      2967	80000290	00002f17	auipc	x30,0x2	 x30=0x80002290
        2971000	      2969	80000294	d63f2823	sw	x3,-656(x30)	 x30:0x80002290  x3:0x00000001 PA:0x80002000 store:0x00000001 load:0x00000000
        2973000	      2971	80000298	bfe5	c.j	80000290	
        2974000	      2972	80000290	00002f17	auipc	x30,0x2	 x30=0x80002290
        2976000	      2974	80000294	d63f2823	sw	x3,-656(x30)	 x30:0x80002290  x3:0x00000001 PA:0x80002000 store:0x00000001 load:0x00000000
        2978000	      2976	80000298	bfe5	c.j	80000290	
        2979000	      2977	80000290	00002f17	auipc	x30,0x2	 x30=0x80002290
        2981000	      2979	80000294	d63f2823	sw	x3,-656(x30)	 x30:0x80002290  x3:0x00000001 PA:0x80002000 store:0x00000001 load:0x00000000
        2983000	      2981	80000298	bfe5	c.j	80000290	
        2984000	      2982	80000290	00002f17	auipc	x30,0x2	 x30=0x80002290
        2986000	      2984	80000294	d63f2823	sw	x3,-656(x30)	 x30:0x80002290  x3:0x00000001 PA:0x80002000 store:0x00000001 load:0x00000000
        2988000	      2986	80000298	bfe5	c.j	80000290	
        2989000	      2987	80000290	00002f17	auipc	x30,0x2	 x30=0x80002290
        2991000	      2989	80000294	d63f2823	sw	x3,-656(x30)	 x30:0x80002290  x3:0x00000001 PA:0x80002000 store:0x00000001 load:0x00000000
        2993000	      2991	80000298	bfe5	c.j	80000290	
        2994000	      2992	80000290	00002f17	auipc	x30,0x2	 x30=0x80002290
        2996000	      2994	80000294	d63f2823	sw	x3,-656(x30)	 x30:0x80002290  x3:0x00000001 PA:0x80002000 store:0x00000001 load:0x00000000
        2998000	      2996	80000298	bfe5	c.j	80000290	
        2999000	      2997	80000290	00002f17	auipc	x30,0x2	 x30=0x80002290
        3001000	      2999	80000294	d63f2823	sw	x3,-656(x30)	 x30:0x80002290  x3:0x00000001 PA:0x80002000 store:0x00000001 load:0x00000000
        3003000	      3001	80000298	bfe5	c.j	80000290	
        3004000	      3002	80000290	00002f17	auipc	x30,0x2	 x30=0x80002290
        3006000	      3004	80000294	d63f2823	sw	x3,-656(x30)	 x30:0x80002290  x3:0x00000001 PA:0x80002000 store:0x00000001 load:0x00000000
        3008000	      3006	80000298	bfe5	c.j	80000290	
        3009000	      3007	80000290	00002f17	auipc	x30,0x2	 x30=0x80002290
        3011000	      3009	80000294	d63f2823	sw	x3,-656(x30)	 x30:0x80002290  x3:0x00000001 PA:0x80002000 store:0x00000001 load:0x00000000
        3013000	      3011	80000298	bfe5	c.j	80000290	
        3014000	      3012	80000290	00002f17	auipc	x30,0x2	 x30=0x80002290
        3016000	      3014	80000294	d63f2823	sw	x3,-656(x30)	 x30:0x80002290  x3:0x00000001 PA:0x80002000 store:0x00000001 load:0x00000000
        3018000	      3016	80000298	bfe5	c.j	80000290	
        3019000	      3017	80000290	00002f17	auipc	x30,0x2	 x30=0x80002290
        3021000	      3019	80000294	d63f2823	sw	x3,-656(x30)	 x30:0x80002290  x3:0x00000001 PA:0x80002000 store:0x00000001 load:0x00000000
        3023000	      3021	80000298	bfe5	c.j	80000290	
        3024000	      3022	80000290	00002f17	auipc	x30,0x2	 x30=0x80002290
        3026000	      3024	80000294	d63f2823	sw	x3,-656(x30)	 x30:0x80002290  x3:0x00000001 PA:0x80002000 store:0x00000001 load:0x00000000
        3028000	      3026	80000298	bfe5	c.j	80000290	
        3029000	      3027	80000290	00002f17	auipc	x30,0x2	 x30=0x80002290
        3031000	      3029	80000294	d63f2823	sw	x3,-656(x30)	 x30:0x80002290  x3:0x00000001 PA:0x80002000 store:0x00000001 load:0x00000000
        3033000	      3031	80000298	bfe5	c.j	80000290	
        3034000	      3032	80000290	00002f17	auipc	x30,0x2	 x30=0x80002290
        3036000	      3034	80000294	d63f2823	sw	x3,-656(x30)	 x30:0x80002290  x3:0x00000001 PA:0x80002000 store:0x00000001 load:0x00000000
        3038000	      3036	80000298	bfe5	c.j	80000290	
        3039000	      3037	80000290	00002f17	auipc	x30,0x2	 x30=0x80002290
        3041000	      3039	80000294	d63f2823	sw	x3,-656(x30)	 x30:0x80002290  x3:0x00000001 PA:0x80002000 store:0x00000001 load:0x00000000
        3043000	      3041	80000298	bfe5	c.j	80000290	
        3044000	      3042	80000290	00002f17	auipc	x30,0x2	 x30=0x80002290
        3046000	      3044	80000294	d63f2823	sw	x3,-656(x30)	 x30:0x80002290  x3:0x00000001 PA:0x80002000 store:0x00000001 load:0x00000000
        3048000	      3046	80000298	bfe5	c.j	80000290	
        3049000	      3047	80000290	00002f17	auipc	x30,0x2	 x30=0x80002290
        3051000	      3049	80000294	d63f2823	sw	x3,-656(x30)	 x30:0x80002290  x3:0x00000001 PA:0x80002000 store:0x00000001 load:0x00000000
        3053000	      3051	80000298	bfe5	c.j	80000290	
        3054000	      3052	80000290	00002f17	auipc	x30,0x2	 x30=0x80002290
        3056000	      3054	80000294	d63f2823	sw	x3,-656(x30)	 x30:0x80002290  x3:0x00000001 PA:0x80002000 store:0x00000001 load:0x00000000
        3058000	      3056	80000298	bfe5	c.j	80000290	
        3059000	      3057	80000290	00002f17	auipc	x30,0x2	 x30=0x80002290
        3061000	      3059	80000294	d63f2823	sw	x3,-656(x30)	 x30:0x80002290  x3:0x00000001 PA:0x80002000 store:0x00000001 load:0x00000000
        3063000	      3061	80000298	bfe5	c.j	80000290	
        3064000	      3062	80000290	00002f17	auipc	x30,0x2	 x30=0x80002290
        3066000	      3064	80000294	d63f2823	sw	x3,-656(x30)	 x30:0x80002290  x3:0x00000001 PA:0x80002000 store:0x00000001 load:0x00000000
        3068000	      3066	80000298	bfe5	c.j	80000290	
        3069000	      3067	80000290	00002f17	auipc	x30,0x2	 x30=0x80002290
        3071000	      3069	80000294	d63f2823	sw	x3,-656(x30)	 x30:0x80002290  x3:0x00000001 PA:0x80002000 store:0x00000001 load:0x00000000
        3073000	      3071	80000298	bfe5	c.j	80000290	
        3074000	      3072	80000290	00002f17	auipc	x30,0x2	 x30=0x80002290
        3076000	      3074	80000294	d63f2823	sw	x3,-656(x30)	 x30:0x80002290  x3:0x00000001 PA:0x80002000 store:0x00000001 load:0x00000000
        3078000	      3076	80000298	bfe5	c.j	80000290	
        3079000	      3077	80000290	00002f17	auipc	x30,0x2	 x30=0x80002290
        3081000	      3079	80000294	d63f2823	sw	x3,-656(x30)	 x30:0x80002290  x3:0x00000001 PA:0x80002000 store:0x00000001 load:0x00000000
        3083000	      3081	80000298	bfe5	c.j	80000290	
        3084000	      3082	80000290	00002f17	auipc	x30,0x2	 x30=0x80002290
        3086000	      3084	80000294	d63f2823	sw	x3,-656(x30)	 x30:0x80002290  x3:0x00000001 PA:0x80002000 store:0x00000001 load:0x00000000
        3088000	      3086	80000298	bfe5	c.j	80000290	
        3089000	      3087	80000290	00002f17	auipc	x30,0x2	 x30=0x80002290
        3091000	      3089	80000294	d63f2823	sw	x3,-656(x30)	 x30:0x80002290  x3:0x00000001 PA:0x80002000 store:0x00000001 load:0x00000000
        3093000	      3091	80000298	bfe5	c.j	80000290	
        3094000	      3092	80000290	00002f17	auipc	x30,0x2	 x30=0x80002290
        3096000	      3094	80000294	d63f2823	sw	x3,-656(x30)	 x30:0x80002290  x3:0x00000001 PA:0x80002000 store:0x00000001 load:0x00000000
        3098000	      3096	80000298	bfe5	c.j	80000290	
        3099000	      3097	80000290	00002f17	auipc	x30,0x2	 x30=0x80002290
        3101000	      3099	80000294	d63f2823	sw	x3,-656(x30)	 x30:0x80002290  x3:0x00000001 PA:0x80002000 store:0x00000001 load:0x00000000
        3103000	      3101	80000298	bfe5	c.j	80000290	
        3104000	      3102	80000290	00002f17	auipc	x30,0x2	 x30=0x80002290
        3106000	      3104	80000294	d63f2823	sw	x3,-656(x30)	 x30:0x80002290  x3:0x00000001 PA:0x80002000 store:0x00000001 load:0x00000000
        3108000	      3106	80000298	bfe5	c.j	80000290	
        3109000	      3107	80000290	00002f17	auipc	x30,0x2	 x30=0x80002290
        3111000	      3109	80000294	d63f2823	sw	x3,-656(x30)	 x30:0x80002290  x3:0x00000001 PA:0x80002000 store:0x00000001 load:0x00000000
        3113000	      3111	80000298	bfe5	c.j	80000290	
        3114000	      3112	80000290	00002f17	auipc	x30,0x2	 x30=0x80002290
        3116000	      3114	80000294	d63f2823	sw	x3,-656(x30)	 x30:0x80002290  x3:0x00000001 PA:0x80002000 store:0x00000001 load:0x00000000
        3118000	      3116	80000298	bfe5	c.j	80000290	
        3119000	      3117	80000290	00002f17	auipc	x30,0x2	 x30=0x80002290
        3121000	      3119	80000294	d63f2823	sw	x3,-656(x30)	 x30:0x80002290  x3:0x00000001 PA:0x80002000 store:0x00000001 load:0x00000000
        3123000	      3121	80000298	bfe5	c.j	80000290	
        3124000	      3122	80000290	00002f17	auipc	x30,0x2	 x30=0x80002290
        3126000	      3124	80000294	d63f2823	sw	x3,-656(x30)	 x30:0x80002290  x3:0x00000001 PA:0x80002000 store:0x00000001 load:0x00000000
        3128000	      3126	80000298	bfe5	c.j	80000290	
        3129000	      3127	80000290	00002f17	auipc	x30,0x2	 x30=0x80002290
        3131000	      3129	80000294	d63f2823	sw	x3,-656(x30)	 x30:0x80002290  x3:0x00000001 PA:0x80002000 store:0x00000001 load:0x00000000
        3133000	      3131	80000298	bfe5	c.j	80000290	
        3134000	      3132	80000290	00002f17	auipc	x30,0x2	 x30=0x80002290
        3136000	      3134	80000294	d63f2823	sw	x3,-656(x30)	 x30:0x80002290  x3:0x00000001 PA:0x80002000 store:0x00000001 load:0x00000000
        3138000	      3136	80000298	bfe5	c.j	80000290	
        3139000	      3137	80000290	00002f17	auipc	x30,0x2	 x30=0x80002290
        3141000	      3139	80000294	d63f2823	sw	x3,-656(x30)	 x30:0x80002290  x3:0x00000001 PA:0x80002000 store:0x00000001 load:0x00000000
        3143000	      3141	80000298	bfe5	c.j	80000290	
        3144000	      3142	80000290	00002f17	auipc	x30,0x2	 x30=0x80002290
        3146000	      3144	80000294	d63f2823	sw	x3,-656(x30)	 x30:0x80002290  x3:0x00000001 PA:0x80002000 store:0x00000001 load:0x00000000
        3148000	      3146	80000298	bfe5	c.j	80000290	
        3149000	      3147	80000290	00002f17	auipc	x30,0x2	 x30=0x80002290
        3151000	      3149	80000294	d63f2823	sw	x3,-656(x30)	 x30:0x80002290  x3:0x00000001 PA:0x80002000 store:0x00000001 load:0x00000000
        3153000	      3151	80000298	bfe5	c.j	80000290	
        3154000	      3152	80000290	00002f17	auipc	x30,0x2	 x30=0x80002290
        3156000	      3154	80000294	d63f2823	sw	x3,-656(x30)	 x30:0x80002290  x3:0x00000001 PA:0x80002000 store:0x00000001 load:0x00000000
        3158000	      3156	80000298	bfe5	c.j	80000290	
        3159000	      3157	80000290	00002f17	auipc	x30,0x2	 x30=0x80002290
        3161000	      3159	80000294	d63f2823	sw	x3,-656(x30)	 x30:0x80002290  x3:0x00000001 PA:0x80002000 store:0x00000001 load:0x00000000
        3163000	      3161	80000298	bfe5	c.j	80000290	
        3164000	      3162	80000290	00002f17	auipc	x30,0x2	 x30=0x80002290
        3166000	      3164	80000294	d63f2823	sw	x3,-656(x30)	 x30:0x80002290  x3:0x00000001 PA:0x80002000 store:0x00000001 load:0x00000000
        3168000	      3166	80000298	bfe5	c.j	80000290	
        3169000	      3167	80000290	00002f17	auipc	x30,0x2	 x30=0x80002290
        3171000	      3169	80000294	d63f2823	sw	x3,-656(x30)	 x30:0x80002290  x3:0x00000001 PA:0x80002000 store:0x00000001 load:0x00000000
        3173000	      3171	80000298	bfe5	c.j	80000290	
        3174000	      3172	80000290	00002f17	auipc	x30,0x2	 x30=0x80002290
        3176000	      3174	80000294	d63f2823	sw	x3,-656(x30)	 x30:0x80002290  x3:0x00000001 PA:0x80002000 store:0x00000001 load:0x00000000
        3178000	      3176	80000298	bfe5	c.j	80000290	
        3179000	      3177	80000290	00002f17	auipc	x30,0x2	 x30=0x80002290
        3181000	      3179	80000294	d63f2823	sw	x3,-656(x30)	 x30:0x80002290  x3:0x00000001 PA:0x80002000 store:0x00000001 load:0x00000000
        3183000	      3181	80000298	bfe5	c.j	80000290	
        3184000	      3182	80000290	00002f17	auipc	x30,0x2	 x30=0x80002290
        3186000	      3184	80000294	d63f2823	sw	x3,-656(x30)	 x30:0x80002290  x3:0x00000001 PA:0x80002000 store:0x00000001 load:0x00000000
        3188000	      3186	80000298	bfe5	c.j	80000290	
        3189000	      3187	80000290	00002f17	auipc	x30,0x2	 x30=0x80002290
        3191000	      3189	80000294	d63f2823	sw	x3,-656(x30)	 x30:0x80002290  x3:0x00000001 PA:0x80002000 store:0x00000001 load:0x00000000
        3193000	      3191	80000298	bfe5	c.j	80000290	
        3194000	      3192	80000290	00002f17	auipc	x30,0x2	 x30=0x80002290
        3196000	      3194	80000294	d63f2823	sw	x3,-656(x30)	 x30:0x80002290  x3:0x00000001 PA:0x80002000 store:0x00000001 load:0x00000000
        3198000	      3196	80000298	bfe5	c.j	80000290	
        3199000	      3197	80000290	00002f17	auipc	x30,0x2	 x30=0x80002290
        3201000	      3199	80000294	d63f2823	sw	x3,-656(x30)	 x30:0x80002290  x3:0x00000001 PA:0x80002000 store:0x00000001 load:0x00000000
        3203000	      3201	80000298	bfe5	c.j	80000290	
        3204000	      3202	80000290	00002f17	auipc	x30,0x2	 x30=0x80002290
        3206000	      3204	80000294	d63f2823	sw	x3,-656(x30)	 x30:0x80002290  x3:0x00000001 PA:0x80002000 store:0x00000001 load:0x00000000
        3208000	      3206	80000298	bfe5	c.j	80000290	
        3209000	      3207	80000290	00002f17	auipc	x30,0x2	 x30=0x80002290
        3211000	      3209	80000294	d63f2823	sw	x3,-656(x30)	 x30:0x80002290  x3:0x00000001 PA:0x80002000 store:0x00000001 load:0x00000000
        3213000	      3211	80000298	bfe5	c.j	80000290	
        3214000	      3212	80000290	00002f17	auipc	x30,0x2	 x30=0x80002290
        3216000	      3214	80000294	d63f2823	sw	x3,-656(x30)	 x30:0x80002290  x3:0x00000001 PA:0x80002000 store:0x00000001 load:0x00000000
        3218000	      3216	80000298	bfe5	c.j	80000290	
        3219000	      3217	80000290	00002f17	auipc	x30,0x2	 x30=0x80002290
        3221000	      3219	80000294	d63f2823	sw	x3,-656(x30)	 x30:0x80002290  x3:0x00000001 PA:0x80002000 store:0x00000001 load:0x00000000
        3223000	      3221	80000298	bfe5	c.j	80000290	
        3224000	      3222	80000290	00002f17	auipc	x30,0x2	 x30=0x80002290
        3226000	      3224	80000294	d63f2823	sw	x3,-656(x30)	 x30:0x80002290  x3:0x00000001 PA:0x80002000 store:0x00000001 load:0x00000000
        3228000	      3226	80000298	bfe5	c.j	80000290	
        3229000	      3227	80000290	00002f17	auipc	x30,0x2	 x30=0x80002290
        3231000	      3229	80000294	d63f2823	sw	x3,-656(x30)	 x30:0x80002290  x3:0x00000001 PA:0x80002000 store:0x00000001 load:0x00000000
        3233000	      3231	80000298	bfe5	c.j	80000290	
        3234000	      3232	80000290	00002f17	auipc	x30,0x2	 x30=0x80002290
        3236000	      3234	80000294	d63f2823	sw	x3,-656(x30)	 x30:0x80002290  x3:0x00000001 PA:0x80002000 store:0x00000001 load:0x00000000
        3238000	      3236	80000298	bfe5	c.j	80000290	
        3239000	      3237	80000290	00002f17	auipc	x30,0x2	 x30=0x80002290
        3241000	      3239	80000294	d63f2823	sw	x3,-656(x30)	 x30:0x80002290  x3:0x00000001 PA:0x80002000 store:0x00000001 load:0x00000000
        3243000	      3241	80000298	bfe5	c.j	80000290	
        3244000	      3242	80000290	00002f17	auipc	x30,0x2	 x30=0x80002290
        3246000	      3244	80000294	d63f2823	sw	x3,-656(x30)	 x30:0x80002290  x3:0x00000001 PA:0x80002000 store:0x00000001 load:0x00000000
        3248000	      3246	80000298	bfe5	c.j	80000290	
        3249000	      3247	80000290	00002f17	auipc	x30,0x2	 x30=0x80002290
        3251000	      3249	80000294	d63f2823	sw	x3,-656(x30)	 x30:0x80002290  x3:0x00000001 PA:0x80002000 store:0x00000001 load:0x00000000
        3253000	      3251	80000298	bfe5	c.j	80000290	
        3254000	      3252	80000290	00002f17	auipc	x30,0x2	 x30=0x80002290
        3256000	      3254	80000294	d63f2823	sw	x3,-656(x30)	 x30:0x80002290  x3:0x00000001 PA:0x80002000 store:0x00000001 load:0x00000000
        3258000	      3256	80000298	bfe5	c.j	80000290	
        3259000	      3257	80000290	00002f17	auipc	x30,0x2	 x30=0x80002290
        3261000	      3259	80000294	d63f2823	sw	x3,-656(x30)	 x30:0x80002290  x3:0x00000001 PA:0x80002000 store:0x00000001 load:0x00000000
        3263000	      3261	80000298	bfe5	c.j	80000290	
        3264000	      3262	80000290	00002f17	auipc	x30,0x2	 x30=0x80002290
        3266000	      3264	80000294	d63f2823	sw	x3,-656(x30)	 x30:0x80002290  x3:0x00000001 PA:0x80002000 store:0x00000001 load:0x00000000
        3268000	      3266	80000298	bfe5	c.j	80000290	
        3269000	      3267	80000290	00002f17	auipc	x30,0x2	 x30=0x80002290
        3271000	      3269	80000294	d63f2823	sw	x3,-656(x30)	 x30:0x80002290  x3:0x00000001 PA:0x80002000 store:0x00000001 load:0x00000000
        3273000	      3271	80000298	bfe5	c.j	80000290	
        3274000	      3272	80000290	00002f17	auipc	x30,0x2	 x30=0x80002290
        3276000	      3274	80000294	d63f2823	sw	x3,-656(x30)	 x30:0x80002290  x3:0x00000001 PA:0x80002000 store:0x00000001 load:0x00000000
        3278000	      3276	80000298	bfe5	c.j	80000290	
        3279000	      3277	80000290	00002f17	auipc	x30,0x2	 x30=0x80002290
        3281000	      3279	80000294	d63f2823	sw	x3,-656(x30)	 x30:0x80002290  x3:0x00000001 PA:0x80002000 store:0x00000001 load:0x00000000
        3283000	      3281	80000298	bfe5	c.j	80000290	
        3284000	      3282	80000290	00002f17	auipc	x30,0x2	 x30=0x80002290
        3286000	      3284	80000294	d63f2823	sw	x3,-656(x30)	 x30:0x80002290  x3:0x00000001 PA:0x80002000 store:0x00000001 load:0x00000000
        3288000	      3286	80000298	bfe5	c.j	80000290	
        3289000	      3287	80000290	00002f17	auipc	x30,0x2	 x30=0x80002290
        3291000	      3289	80000294	d63f2823	sw	x3,-656(x30)	 x30:0x80002290  x3:0x00000001 PA:0x80002000 store:0x00000001 load:0x00000000
        3293000	      3291	80000298	bfe5	c.j	80000290	
        3294000	      3292	80000290	00002f17	auipc	x30,0x2	 x30=0x80002290
        3296000	      3294	80000294	d63f2823	sw	x3,-656(x30)	 x30:0x80002290  x3:0x00000001 PA:0x80002000 store:0x00000001 load:0x00000000
        3298000	      3296	80000298	bfe5	c.j	80000290	
        3299000	      3297	80000290	00002f17	auipc	x30,0x2	 x30=0x80002290
        3301000	      3299	80000294	d63f2823	sw	x3,-656(x30)	 x30:0x80002290  x3:0x00000001 PA:0x80002000 store:0x00000001 load:0x00000000
        3303000	      3301	80000298	bfe5	c.j	80000290	
        3304000	      3302	80000290	00002f17	auipc	x30,0x2	 x30=0x80002290
        3306000	      3304	80000294	d63f2823	sw	x3,-656(x30)	 x30:0x80002290  x3:0x00000001 PA:0x80002000 store:0x00000001 load:0x00000000
        3308000	      3306	80000298	bfe5	c.j	80000290	
        3309000	      3307	80000290	00002f17	auipc	x30,0x2	 x30=0x80002290
        3311000	      3309	80000294	d63f2823	sw	x3,-656(x30)	 x30:0x80002290  x3:0x00000001 PA:0x80002000 store:0x00000001 load:0x00000000
        3313000	      3311	80000298	bfe5	c.j	80000290	
        3314000	      3312	80000290	00002f17	auipc	x30,0x2	 x30=0x80002290
        3316000	      3314	80000294	d63f2823	sw	x3,-656(x30)	 x30:0x80002290  x3:0x00000001 PA:0x80002000 store:0x00000001 load:0x00000000
        3318000	      3316	80000298	bfe5	c.j	80000290	
        3319000	      3317	80000290	00002f17	auipc	x30,0x2	 x30=0x80002290
        3321000	      3319	80000294	d63f2823	sw	x3,-656(x30)	 x30:0x80002290  x3:0x00000001 PA:0x80002000 store:0x00000001 load:0x00000000
        3323000	      3321	80000298	bfe5	c.j	80000290	
        3324000	      3322	80000290	00002f17	auipc	x30,0x2	 x30=0x80002290
        3326000	      3324	80000294	d63f2823	sw	x3,-656(x30)	 x30:0x80002290  x3:0x00000001 PA:0x80002000 store:0x00000001 load:0x00000000
        3328000	      3326	80000298	bfe5	c.j	80000290	
        3329000	      3327	80000290	00002f17	auipc	x30,0x2	 x30=0x80002290
        3331000	      3329	80000294	d63f2823	sw	x3,-656(x30)	 x30:0x80002290  x3:0x00000001 PA:0x80002000 store:0x00000001 load:0x00000000
        3333000	      3331	80000298	bfe5	c.j	80000290	
        3334000	      3332	80000290	00002f17	auipc	x30,0x2	 x30=0x80002290
        3336000	      3334	80000294	d63f2823	sw	x3,-656(x30)	 x30:0x80002290  x3:0x00000001 PA:0x80002000 store:0x00000001 load:0x00000000
        3338000	      3336	80000298	bfe5	c.j	80000290	
        3339000	      3337	80000290	00002f17	auipc	x30,0x2	 x30=0x80002290
        3341000	      3339	80000294	d63f2823	sw	x3,-656(x30)	 x30:0x80002290  x3:0x00000001 PA:0x80002000 store:0x00000001 load:0x00000000
        3343000	      3341	80000298	bfe5	c.j	80000290	
        3344000	      3342	80000290	00002f17	auipc	x30,0x2	 x30=0x80002290
        3346000	      3344	80000294	d63f2823	sw	x3,-656(x30)	 x30:0x80002290  x3:0x00000001 PA:0x80002000 store:0x00000001 load:0x00000000
        3348000	      3346	80000298	bfe5	c.j	80000290	
        3349000	      3347	80000290	00002f17	auipc	x30,0x2	 x30=0x80002290
        3351000	      3349	80000294	d63f2823	sw	x3,-656(x30)	 x30:0x80002290  x3:0x00000001 PA:0x80002000 store:0x00000001 load:0x00000000
        3353000	      3351	80000298	bfe5	c.j	80000290	
        3354000	      3352	80000290	00002f17	auipc	x30,0x2	 x30=0x80002290
        3356000	      3354	80000294	d63f2823	sw	x3,-656(x30)	 x30:0x80002290  x3:0x00000001 PA:0x80002000 store:0x00000001 load:0x00000000
        3358000	      3356	80000298	bfe5	c.j	80000290	
        3359000	      3357	80000290	00002f17	auipc	x30,0x2	 x30=0x80002290
        3361000	      3359	80000294	d63f2823	sw	x3,-656(x30)	 x30:0x80002290  x3:0x00000001 PA:0x80002000 store:0x00000001 load:0x00000000
        3363000	      3361	80000298	bfe5	c.j	80000290	
        3364000	      3362	80000290	00002f17	auipc	x30,0x2	 x30=0x80002290
        3366000	      3364	80000294	d63f2823	sw	x3,-656(x30)	 x30:0x80002290  x3:0x00000001 PA:0x80002000 store:0x00000001 load:0x00000000
        3368000	      3366	80000298	bfe5	c.j	80000290	
        3369000	      3367	80000290	00002f17	auipc	x30,0x2	 x30=0x80002290
        3371000	      3369	80000294	d63f2823	sw	x3,-656(x30)	 x30:0x80002290  x3:0x00000001 PA:0x80002000 store:0x00000001 load:0x00000000
        3373000	      3371	80000298	bfe5	c.j	80000290	
        3374000	      3372	80000290	00002f17	auipc	x30,0x2	 x30=0x80002290
        3376000	      3374	80000294	d63f2823	sw	x3,-656(x30)	 x30:0x80002290  x3:0x00000001 PA:0x80002000 store:0x00000001 load:0x00000000
        3378000	      3376	80000298	bfe5	c.j	80000290	
        3379000	      3377	80000290	00002f17	auipc	x30,0x2	 x30=0x80002290
        3381000	      3379	80000294	d63f2823	sw	x3,-656(x30)	 x30:0x80002290  x3:0x00000001 PA:0x80002000 store:0x00000001 load:0x00000000
        3383000	      3381	80000298	bfe5	c.j	80000290	
        3384000	      3382	80000290	00002f17	auipc	x30,0x2	 x30=0x80002290
        3386000	      3384	80000294	d63f2823	sw	x3,-656(x30)	 x30:0x80002290  x3:0x00000001 PA:0x80002000 store:0x00000001 load:0x00000000
        3388000	      3386	80000298	bfe5	c.j	80000290	
        3389000	      3387	80000290	00002f17	auipc	x30,0x2	 x30=0x80002290
        3391000	      3389	80000294	d63f2823	sw	x3,-656(x30)	 x30:0x80002290  x3:0x00000001 PA:0x80002000 store:0x00000001 load:0x00000000
        3393000	      3391	80000298	bfe5	c.j	80000290	
        3394000	      3392	80000290	00002f17	auipc	x30,0x2	 x30=0x80002290
        3396000	      3394	80000294	d63f2823	sw	x3,-656(x30)	 x30:0x80002290  x3:0x00000001 PA:0x80002000 store:0x00000001 load:0x00000000
        3398000	      3396	80000298	bfe5	c.j	80000290	
        3399000	      3397	80000290	00002f17	auipc	x30,0x2	 x30=0x80002290
        3401000	      3399	80000294	d63f2823	sw	x3,-656(x30)	 x30:0x80002290  x3:0x00000001 PA:0x80002000 store:0x00000001 load:0x00000000
        3403000	      3401	80000298	bfe5	c.j	80000290	
        3404000	      3402	80000290	00002f17	auipc	x30,0x2	 x30=0x80002290
        3406000	      3404	80000294	d63f2823	sw	x3,-656(x30)	 x30:0x80002290  x3:0x00000001 PA:0x80002000 store:0x00000001 load:0x00000000
        3408000	      3406	80000298	bfe5	c.j	80000290	
        3409000	      3407	80000290	00002f17	auipc	x30,0x2	 x30=0x80002290
        3411000	      3409	80000294	d63f2823	sw	x3,-656(x30)	 x30:0x80002290  x3:0x00000001 PA:0x80002000 store:0x00000001 load:0x00000000
        3413000	      3411	80000298	bfe5	c.j	80000290	
        3414000	      3412	80000290	00002f17	auipc	x30,0x2	 x30=0x80002290
        3416000	      3414	80000294	d63f2823	sw	x3,-656(x30)	 x30:0x80002290  x3:0x00000001 PA:0x80002000 store:0x00000001 load:0x00000000
        3418000	      3416	80000298	bfe5	c.j	80000290	
        3419000	      3417	80000290	00002f17	auipc	x30,0x2	 x30=0x80002290
        3421000	      3419	80000294	d63f2823	sw	x3,-656(x30)	 x30:0x80002290  x3:0x00000001 PA:0x80002000 store:0x00000001 load:0x00000000
        3423000	      3421	80000298	bfe5	c.j	80000290	
        3424000	      3422	80000290	00002f17	auipc	x30,0x2	 x30=0x80002290
        3426000	      3424	80000294	d63f2823	sw	x3,-656(x30)	 x30:0x80002290  x3:0x00000001 PA:0x80002000 store:0x00000001 load:0x00000000
        3428000	      3426	80000298	bfe5	c.j	80000290	
        3429000	      3427	80000290	00002f17	auipc	x30,0x2	 x30=0x80002290
        3431000	      3429	80000294	d63f2823	sw	x3,-656(x30)	 x30:0x80002290  x3:0x00000001 PA:0x80002000 store:0x00000001 load:0x00000000
        3433000	      3431	80000298	bfe5	c.j	80000290	
        3434000	      3432	80000290	00002f17	auipc	x30,0x2	 x30=0x80002290
        3436000	      3434	80000294	d63f2823	sw	x3,-656(x30)	 x30:0x80002290  x3:0x00000001 PA:0x80002000 store:0x00000001 load:0x00000000
        3438000	      3436	80000298	bfe5	c.j	80000290	
        3439000	      3437	80000290	00002f17	auipc	x30,0x2	 x30=0x80002290
        3441000	      3439	80000294	d63f2823	sw	x3,-656(x30)	 x30:0x80002290  x3:0x00000001 PA:0x80002000 store:0x00000001 load:0x00000000
        3443000	      3441	80000298	bfe5	c.j	80000290	
        3444000	      3442	80000290	00002f17	auipc	x30,0x2	 x30=0x80002290
        3446000	      3444	80000294	d63f2823	sw	x3,-656(x30)	 x30:0x80002290  x3:0x00000001 PA:0x80002000 store:0x00000001 load:0x00000000
        3448000	      3446	80000298	bfe5	c.j	80000290	
        3449000	      3447	80000290	00002f17	auipc	x30,0x2	 x30=0x80002290
        3451000	      3449	80000294	d63f2823	sw	x3,-656(x30)	 x30:0x80002290  x3:0x00000001 PA:0x80002000 store:0x00000001 load:0x00000000
        3453000	      3451	80000298	bfe5	c.j	80000290	
        3454000	      3452	80000290	00002f17	auipc	x30,0x2	 x30=0x80002290
        3456000	      3454	80000294	d63f2823	sw	x3,-656(x30)	 x30:0x80002290  x3:0x00000001 PA:0x80002000 store:0x00000001 load:0x00000000
        3458000	      3456	80000298	bfe5	c.j	80000290	
        3459000	      3457	80000290	00002f17	auipc	x30,0x2	 x30=0x80002290
        3461000	      3459	80000294	d63f2823	sw	x3,-656(x30)	 x30:0x80002290  x3:0x00000001 PA:0x80002000 store:0x00000001 load:0x00000000
        3463000	      3461	80000298	bfe5	c.j	80000290	
        3464000	      3462	80000290	00002f17	auipc	x30,0x2	 x30=0x80002290
        3466000	      3464	80000294	d63f2823	sw	x3,-656(x30)	 x30:0x80002290  x3:0x00000001 PA:0x80002000 store:0x00000001 load:0x00000000
        3468000	      3466	80000298	bfe5	c.j	80000290	
        3469000	      3467	80000290	00002f17	auipc	x30,0x2	 x30=0x80002290
        3471000	      3469	80000294	d63f2823	sw	x3,-656(x30)	 x30:0x80002290  x3:0x00000001 PA:0x80002000 store:0x00000001 load:0x00000000
        3473000	      3471	80000298	bfe5	c.j	80000290	
        3474000	      3472	80000290	00002f17	auipc	x30,0x2	 x30=0x80002290
        3476000	      3474	80000294	d63f2823	sw	x3,-656(x30)	 x30:0x80002290  x3:0x00000001 PA:0x80002000 store:0x00000001 load:0x00000000
        3478000	      3476	80000298	bfe5	c.j	80000290	
        3479000	      3477	80000290	00002f17	auipc	x30,0x2	 x30=0x80002290
        3481000	      3479	80000294	d63f2823	sw	x3,-656(x30)	 x30:0x80002290  x3:0x00000001 PA:0x80002000 store:0x00000001 load:0x00000000
        3483000	      3481	80000298	bfe5	c.j	80000290	
        3484000	      3482	80000290	00002f17	auipc	x30,0x2	 x30=0x80002290
        3486000	      3484	80000294	d63f2823	sw	x3,-656(x30)	 x30:0x80002290  x3:0x00000001 PA:0x80002000 store:0x00000001 load:0x00000000
        3488000	      3486	80000298	bfe5	c.j	80000290	
        3489000	      3487	80000290	00002f17	auipc	x30,0x2	 x30=0x80002290
        3491000	      3489	80000294	d63f2823	sw	x3,-656(x30)	 x30:0x80002290  x3:0x00000001 PA:0x80002000 store:0x00000001 load:0x00000000
        3493000	      3491	80000298	bfe5	c.j	80000290	
        3494000	      3492	80000290	00002f17	auipc	x30,0x2	 x30=0x80002290
        3496000	      3494	80000294	d63f2823	sw	x3,-656(x30)	 x30:0x80002290  x3:0x00000001 PA:0x80002000 store:0x00000001 load:0x00000000
        3498000	      3496	80000298	bfe5	c.j	80000290	
        3499000	      3497	80000290	00002f17	auipc	x30,0x2	 x30=0x80002290
        3501000	      3499	80000294	d63f2823	sw	x3,-656(x30)	 x30:0x80002290  x3:0x00000001 PA:0x80002000 store:0x00000001 load:0x00000000
